Archive member included to satisfy reference by file (symbol)

/usr/bin/../lib/gcc/arm-none-eabi/6.3.1/../../../../arm-none-eabi/lib/thumb/v7e-m/fpv4-sp/hard/libg.a(lib_a-exit.o)
                              /usr/bin/../lib/gcc/arm-none-eabi/6.3.1/../../../../arm-none-eabi/lib/thumb/v7e-m/fpv4-sp/hard/crt0.o (exit)
/usr/bin/../lib/gcc/arm-none-eabi/6.3.1/../../../../arm-none-eabi/lib/thumb/v7e-m/fpv4-sp/hard/libg.a(lib_a-impure.o)
                              /usr/bin/../lib/gcc/arm-none-eabi/6.3.1/../../../../arm-none-eabi/lib/thumb/v7e-m/fpv4-sp/hard/libg.a(lib_a-exit.o) (_global_impure_ptr)
/usr/bin/../lib/gcc/arm-none-eabi/6.3.1/../../../../arm-none-eabi/lib/thumb/v7e-m/fpv4-sp/hard/libg.a(lib_a-init.o)
                              /usr/bin/../lib/gcc/arm-none-eabi/6.3.1/../../../../arm-none-eabi/lib/thumb/v7e-m/fpv4-sp/hard/crt0.o (__libc_init_array)
/usr/bin/../lib/gcc/arm-none-eabi/6.3.1/../../../../arm-none-eabi/lib/thumb/v7e-m/fpv4-sp/hard/libg.a(lib_a-memset.o)
                              /usr/bin/../lib/gcc/arm-none-eabi/6.3.1/../../../../arm-none-eabi/lib/thumb/v7e-m/fpv4-sp/hard/crt0.o (memset)
/usr/bin/../lib/gcc/arm-none-eabi/6.3.1/../../../../arm-none-eabi/lib/thumb/v7e-m/fpv4-sp/hard/libg.a(lib_a-__call_atexit.o)
                              /usr/bin/../lib/gcc/arm-none-eabi/6.3.1/../../../../arm-none-eabi/lib/thumb/v7e-m/fpv4-sp/hard/libg.a(lib_a-exit.o) (__call_exitprocs)
/usr/bin/../lib/gcc/arm-none-eabi/6.3.1/../../../../arm-none-eabi/lib/thumb/v7e-m/fpv4-sp/hard/libg.a(lib_a-atexit.o)
                              /usr/bin/../lib/gcc/arm-none-eabi/6.3.1/../../../../arm-none-eabi/lib/thumb/v7e-m/fpv4-sp/hard/libg.a(lib_a-__call_atexit.o) (atexit)
/usr/bin/../lib/gcc/arm-none-eabi/6.3.1/../../../../arm-none-eabi/lib/thumb/v7e-m/fpv4-sp/hard/libg.a(lib_a-fini.o)
                              /usr/bin/../lib/gcc/arm-none-eabi/6.3.1/../../../../arm-none-eabi/lib/thumb/v7e-m/fpv4-sp/hard/libg.a(lib_a-__call_atexit.o) (__libc_fini_array)
/usr/bin/../lib/gcc/arm-none-eabi/6.3.1/../../../../arm-none-eabi/lib/thumb/v7e-m/fpv4-sp/hard/libg.a(lib_a-lock.o)
                              /usr/bin/../lib/gcc/arm-none-eabi/6.3.1/../../../../arm-none-eabi/lib/thumb/v7e-m/fpv4-sp/hard/libg.a(lib_a-__call_atexit.o) (__retarget_lock_acquire_recursive)
/usr/bin/../lib/gcc/arm-none-eabi/6.3.1/../../../../arm-none-eabi/lib/thumb/v7e-m/fpv4-sp/hard/libg.a(lib_a-__atexit.o)
                              /usr/bin/../lib/gcc/arm-none-eabi/6.3.1/../../../../arm-none-eabi/lib/thumb/v7e-m/fpv4-sp/hard/libg.a(lib_a-atexit.o) (__register_exitproc)
/usr/bin/../lib/gcc/arm-none-eabi/6.3.1/../../../../arm-none-eabi/lib/thumb/v7e-m/fpv4-sp/hard/libnosys.a(_exit.o)
                              /usr/bin/../lib/gcc/arm-none-eabi/6.3.1/../../../../arm-none-eabi/lib/thumb/v7e-m/fpv4-sp/hard/libg.a(lib_a-exit.o) (_exit)

Allocating common symbols
Common symbol       size              file

__lock___atexit_recursive_mutex
                    0x1               /usr/bin/../lib/gcc/arm-none-eabi/6.3.1/../../../../arm-none-eabi/lib/thumb/v7e-m/fpv4-sp/hard/libg.a(lib_a-lock.o)
__lock___arc4random_mutex
                    0x1               /usr/bin/../lib/gcc/arm-none-eabi/6.3.1/../../../../arm-none-eabi/lib/thumb/v7e-m/fpv4-sp/hard/libg.a(lib_a-lock.o)
__lock___env_recursive_mutex
                    0x1               /usr/bin/../lib/gcc/arm-none-eabi/6.3.1/../../../../arm-none-eabi/lib/thumb/v7e-m/fpv4-sp/hard/libg.a(lib_a-lock.o)
__lock___sinit_recursive_mutex
                    0x1               /usr/bin/../lib/gcc/arm-none-eabi/6.3.1/../../../../arm-none-eabi/lib/thumb/v7e-m/fpv4-sp/hard/libg.a(lib_a-lock.o)
__lock___malloc_recursive_mutex
                    0x1               /usr/bin/../lib/gcc/arm-none-eabi/6.3.1/../../../../arm-none-eabi/lib/thumb/v7e-m/fpv4-sp/hard/libg.a(lib_a-lock.o)
__lock___at_quick_exit_mutex
                    0x1               /usr/bin/../lib/gcc/arm-none-eabi/6.3.1/../../../../arm-none-eabi/lib/thumb/v7e-m/fpv4-sp/hard/libg.a(lib_a-lock.o)
__lock___dd_hash_mutex
                    0x1               /usr/bin/../lib/gcc/arm-none-eabi/6.3.1/../../../../arm-none-eabi/lib/thumb/v7e-m/fpv4-sp/hard/libg.a(lib_a-lock.o)
__lock___tz_mutex   0x1               /usr/bin/../lib/gcc/arm-none-eabi/6.3.1/../../../../arm-none-eabi/lib/thumb/v7e-m/fpv4-sp/hard/libg.a(lib_a-lock.o)
__lock___sfp_recursive_mutex
                    0x1               /usr/bin/../lib/gcc/arm-none-eabi/6.3.1/../../../../arm-none-eabi/lib/thumb/v7e-m/fpv4-sp/hard/libg.a(lib_a-lock.o)

Memory Configuration

Name             Origin             Length             Attributes
rom              0x0000000008000000 0x0000000000100000 xr
ram              0x0000000020000000 0x0000000000020000 xrw
ccm              0x0000000001000000 0x0000000000010000 xrw
*default*        0x0000000000000000 0xffffffffffffffff

Linker script and memory map

LOAD /usr/bin/../lib/gcc/arm-none-eabi/6.3.1/thumb/v7e-m/fpv4-sp/hard/crti.o
LOAD /usr/bin/../lib/gcc/arm-none-eabi/6.3.1/thumb/v7e-m/fpv4-sp/hard/crtbegin.o
LOAD /usr/bin/../lib/gcc/arm-none-eabi/6.3.1/../../../../arm-none-eabi/lib/thumb/v7e-m/fpv4-sp/hard/crt0.o
LOAD /tmp/cclHCGL5.o
LOAD /tmp/ccTnjpyB.o
LOAD /tmp/ccTcYPv7.o
LOAD /tmp/cchBADED.o
LOAD /tmp/ccTTkfY9.o
LOAD /tmp/ccCAOrjG.o
LOAD /tmp/ccvjzZOc.o
LOAD /tmp/cc5AnKvJ.o
LOAD /tmp/ccVbKMng.o
LOAD /tmp/ccU2mvsN.o
LOAD /tmp/ccv5pbNk.o
LOAD /tmp/cc18XDlS.o
LOAD /tmp/ccNAvCfq.o
LOAD /tmp/ccZjBspY.o
START GROUP
LOAD /usr/bin/../lib/gcc/arm-none-eabi/6.3.1/thumb/v7e-m/fpv4-sp/hard/libgcc.a
LOAD /usr/bin/../lib/gcc/arm-none-eabi/6.3.1/../../../../arm-none-eabi/lib/thumb/v7e-m/fpv4-sp/hard/libg.a
LOAD /usr/bin/../lib/gcc/arm-none-eabi/6.3.1/../../../../arm-none-eabi/lib/thumb/v7e-m/fpv4-sp/hard/libc.a
END GROUP
START GROUP
LOAD /usr/bin/../lib/gcc/arm-none-eabi/6.3.1/thumb/v7e-m/fpv4-sp/hard/libgcc.a
LOAD /usr/bin/../lib/gcc/arm-none-eabi/6.3.1/../../../../arm-none-eabi/lib/thumb/v7e-m/fpv4-sp/hard/libc.a
LOAD /usr/bin/../lib/gcc/arm-none-eabi/6.3.1/../../../../arm-none-eabi/lib/thumb/v7e-m/fpv4-sp/hard/libnosys.a
END GROUP
LOAD /usr/bin/../lib/gcc/arm-none-eabi/6.3.1/thumb/v7e-m/fpv4-sp/hard/crtend.o
LOAD /usr/bin/../lib/gcc/arm-none-eabi/6.3.1/thumb/v7e-m/fpv4-sp/hard/crtn.o

.isr_vector     0x0000000008000000      0x188
 *(.isr_vector)
 .isr_vector    0x0000000008000000      0x188 /tmp/ccCAOrjG.o
                0x0000000008000000                g_pfnVectors
                0x0000000008000188                . = ALIGN (0x4)

.eh_frame       0x0000000008000188        0x4
 .eh_frame      0x0000000008000188        0x0 /usr/bin/../lib/gcc/arm-none-eabi/6.3.1/thumb/v7e-m/fpv4-sp/hard/crtbegin.o
 .eh_frame      0x0000000008000188        0x4 /usr/bin/../lib/gcc/arm-none-eabi/6.3.1/thumb/v7e-m/fpv4-sp/hard/crtend.o

.ARM.extab      0x000000000800018c        0x0
 .ARM.extab     0x000000000800018c        0x0 /usr/bin/../lib/gcc/arm-none-eabi/6.3.1/../../../../arm-none-eabi/lib/thumb/v7e-m/fpv4-sp/hard/crt0.o

.ARM.exidx      0x000000000800018c        0x8
 .ARM.exidx     0x000000000800018c        0x8 /usr/bin/../lib/gcc/arm-none-eabi/6.3.1/../../../../arm-none-eabi/lib/thumb/v7e-m/fpv4-sp/hard/crt0.o

.text           0x0000000008000194     0x471c
 *(.vectors)
 *(.text*)
 .text          0x0000000008000194        0x0 /usr/bin/../lib/gcc/arm-none-eabi/6.3.1/thumb/v7e-m/fpv4-sp/hard/crti.o
 .text          0x0000000008000194       0x6c /usr/bin/../lib/gcc/arm-none-eabi/6.3.1/thumb/v7e-m/fpv4-sp/hard/crtbegin.o
 .text          0x0000000008000200       0x74 /usr/bin/../lib/gcc/arm-none-eabi/6.3.1/../../../../arm-none-eabi/lib/thumb/v7e-m/fpv4-sp/hard/crt0.o
                0x0000000008000200                _mainCRTStartup
                0x0000000008000200                _start
 .text          0x0000000008000274      0x218 /tmp/cclHCGL5.o
                0x000000000800030c                tim1_pwm_init
                0x0000000008000404                main
 .text          0x000000000800048c       0x3c /tmp/ccTnjpyB.o
                0x000000000800048c                delay
 .text          0x00000000080004c8       0x8c /tmp/ccTcYPv7.o
                0x00000000080004c8                NMI_Handler
                0x00000000080004d6                HardFault_Handler
                0x00000000080004dc                MemManage_Handler
                0x00000000080004e2                BusFault_Handler
                0x00000000080004e8                UsageFault_Handler
                0x00000000080004ee                SVC_Handler
                0x00000000080004fc                DebugMon_Handler
                0x000000000800050a                PendSV_Handler
                0x0000000008000518                SysTick_Handler
                0x000000000800053c                get_time
 .text          0x0000000008000554      0x25c /tmp/cchBADED.o
                0x0000000008000554                SystemInit
                0x00000000080005c0                SystemCoreClockUpdate
 .text          0x00000000080007b0       0x3c /tmp/ccTTkfY9.o
                0x00000000080007b0                board_led_init
 .text          0x00000000080007ec       0x14 /tmp/ccCAOrjG.o
 .text.Reset_Handler
                0x0000000008000800       0x48 /tmp/ccCAOrjG.o
                0x0000000008000800                Reset_Handler
 .text.Default_Handler
                0x0000000008000848        0x2 /tmp/ccCAOrjG.o
                0x0000000008000848                RTC_Alarm_IRQHandler
                0x0000000008000848                HASH_RNG_IRQHandler
                0x0000000008000848                EXTI2_IRQHandler
                0x0000000008000848                TIM8_CC_IRQHandler
                0x0000000008000848                TIM1_CC_IRQHandler
                0x0000000008000848                DMA2_Stream5_IRQHandler
                0x0000000008000848                DMA1_Stream5_IRQHandler
                0x0000000008000848                PVD_IRQHandler
                0x0000000008000848                SDIO_IRQHandler
                0x0000000008000848                TAMP_STAMP_IRQHandler
                0x0000000008000848                CAN2_RX1_IRQHandler
                0x0000000008000848                EXTI3_IRQHandler
                0x0000000008000848                TIM8_TRG_COM_TIM14_IRQHandler
                0x0000000008000848                TIM1_UP_TIM10_IRQHandler
                0x0000000008000848                TIM8_UP_TIM13_IRQHandler
                0x0000000008000848                I2C3_ER_IRQHandler
                0x0000000008000848                EXTI0_IRQHandler
                0x0000000008000848                I2C2_EV_IRQHandler
                0x0000000008000848                DMA1_Stream2_IRQHandler
                0x0000000008000848                CAN1_RX0_IRQHandler
                0x0000000008000848                FPU_IRQHandler
                0x0000000008000848                OTG_HS_WKUP_IRQHandler
                0x0000000008000848                CAN2_SCE_IRQHandler
                0x0000000008000848                DMA2_Stream2_IRQHandler
                0x0000000008000848                SPI1_IRQHandler
                0x0000000008000848                TIM6_DAC_IRQHandler
                0x0000000008000848                TIM1_BRK_TIM9_IRQHandler
                0x0000000008000848                DCMI_IRQHandler
                0x0000000008000848                CAN2_RX0_IRQHandler
                0x0000000008000848                DMA2_Stream3_IRQHandler
                0x0000000008000848                USART6_IRQHandler
                0x0000000008000848                USART3_IRQHandler
                0x0000000008000848                CRYP_IRQHandler
                0x0000000008000848                CAN1_RX1_IRQHandler
                0x0000000008000848                UART5_IRQHandler
                0x0000000008000848                DMA2_Stream0_IRQHandler
                0x0000000008000848                TIM4_IRQHandler
                0x0000000008000848                I2C1_EV_IRQHandler
                0x0000000008000848                DMA1_Stream6_IRQHandler
                0x0000000008000848                DMA1_Stream1_IRQHandler
                0x0000000008000848                UART4_IRQHandler
                0x0000000008000848                TIM3_IRQHandler
                0x0000000008000848                RCC_IRQHandler
                0x0000000008000848                TIM8_BRK_TIM12_IRQHandler
                0x0000000008000848                Default_Handler
                0x0000000008000848                EXTI15_10_IRQHandler
                0x0000000008000848                ADC_IRQHandler
                0x0000000008000848                DMA1_Stream7_IRQHandler
                0x0000000008000848                TIM7_IRQHandler
                0x0000000008000848                CAN2_TX_IRQHandler
                0x0000000008000848                TIM5_IRQHandler
                0x0000000008000848                DMA2_Stream7_IRQHandler
                0x0000000008000848                I2C3_EV_IRQHandler
                0x0000000008000848                EXTI9_5_IRQHandler
                0x0000000008000848                RTC_WKUP_IRQHandler
                0x0000000008000848                ETH_WKUP_IRQHandler
                0x0000000008000848                SPI2_IRQHandler
                0x0000000008000848                OTG_HS_EP1_IN_IRQHandler
                0x0000000008000848                DMA1_Stream0_IRQHandler
                0x0000000008000848                CAN1_TX_IRQHandler
                0x0000000008000848                EXTI4_IRQHandler
                0x0000000008000848                FSMC_IRQHandler
                0x0000000008000848                ETH_IRQHandler
                0x0000000008000848                OTG_HS_EP1_OUT_IRQHandler
                0x0000000008000848                WWDG_IRQHandler
                0x0000000008000848                TIM2_IRQHandler
                0x0000000008000848                OTG_FS_WKUP_IRQHandler
                0x0000000008000848                TIM1_TRG_COM_TIM11_IRQHandler
                0x0000000008000848                OTG_HS_IRQHandler
                0x0000000008000848                EXTI1_IRQHandler
                0x0000000008000848                USART2_IRQHandler
                0x0000000008000848                I2C2_ER_IRQHandler
                0x0000000008000848                DMA2_Stream1_IRQHandler
                0x0000000008000848                CAN1_SCE_IRQHandler
                0x0000000008000848                FLASH_IRQHandler
                0x0000000008000848                DMA2_Stream4_IRQHandler
                0x0000000008000848                USART1_IRQHandler
                0x0000000008000848                OTG_FS_IRQHandler
                0x0000000008000848                SPI3_IRQHandler
                0x0000000008000848                DMA1_Stream4_IRQHandler
                0x0000000008000848                I2C1_ER_IRQHandler
                0x0000000008000848                DMA2_Stream6_IRQHandler
                0x0000000008000848                DMA1_Stream3_IRQHandler
 *fill*         0x000000000800084a        0x2 
 .text          0x000000000800084c      0x194 /tmp/ccvjzZOc.o
                0x000000000800084c                NVIC_PriorityGroupConfig
                0x0000000008000874                NVIC_Init
                0x0000000008000938                NVIC_SetVectorTable
                0x0000000008000964                NVIC_SystemLPConfig
                0x00000000080009a8                SysTick_CLKSourceConfig
 .text          0x00000000080009e0       0xf4 /tmp/cc5AnKvJ.o
                0x00000000080009e0                DBGMCU_GetREVID
                0x00000000080009f8                DBGMCU_GetDEVID
                0x0000000008000a14                DBGMCU_Config
                0x0000000008000a54                DBGMCU_APB1PeriphConfig
                0x0000000008000a94                DBGMCU_APB2PeriphConfig
 .text          0x0000000008000ad4      0x210 /tmp/ccVbKMng.o
                0x0000000008000ad4                EXTI_DeInit
                0x0000000008000b08                EXTI_Init
                0x0000000008000bec                EXTI_StructInit
                0x0000000008000c18                EXTI_GenerateSWInterrupt
                0x0000000008000c3c                EXTI_GetFlagStatus
                0x0000000008000c70                EXTI_ClearFlag
                0x0000000008000c90                EXTI_GetITStatus
                0x0000000008000cc4                EXTI_ClearITPendingBit
 .text          0x0000000008000ce4      0x4d4 /tmp/ccU2mvsN.o
                0x0000000008000ce4                GPIO_DeInit
                0x0000000008000e48                GPIO_Init
                0x0000000008000f64                GPIO_StructInit
                0x0000000008000f98                GPIO_PinLockConfig
                0x0000000008000fdc                GPIO_ReadInputDataBit
                0x0000000008001010                GPIO_ReadInputData
                0x000000000800102a                GPIO_ReadOutputDataBit
                0x000000000800105e                GPIO_ReadOutputData
                0x0000000008001078                GPIO_SetBits
                0x0000000008001096                GPIO_ResetBits
                0x00000000080010b4                GPIO_WriteBit
                0x00000000080010e4                GPIO_Write
                0x0000000008001102                GPIO_ToggleBits
                0x0000000008001126                GPIO_PinAFConfig
 .text          0x00000000080011b8      0xce0 /tmp/ccv5pbNk.o
                0x00000000080011b8                RCC_DeInit
                0x0000000008001228                RCC_HSEConfig
                0x0000000008001250                RCC_WaitForHSEStartUp
                0x00000000080012a0                RCC_AdjustHSICalibrationValue
                0x00000000080012dc                RCC_HSICmd
                0x00000000080012fc                RCC_LSEConfig
                0x0000000008001340                RCC_LSICmd
                0x0000000008001360                RCC_PLLConfig
                0x00000000080013a0                RCC_PLLCmd
                0x00000000080013c0                RCC_PLLI2SConfig
                0x00000000080013ec                RCC_PLLI2SCmd
                0x000000000800140c                RCC_PLLSAIConfig
                0x0000000008001440                RCC_PLLSAICmd
                0x0000000008001460                RCC_ClockSecuritySystemCmd
                0x0000000008001480                RCC_MCO1Config
                0x00000000080014c0                RCC_MCO2Config
                0x0000000008001500                RCC_SYSCLKConfig
                0x0000000008001538                RCC_GetSYSCLKSource
                0x0000000008001558                RCC_HCLKConfig
                0x0000000008001590                RCC_PCLK1Config
                0x00000000080015c8                RCC_PCLK2Config
                0x0000000008001604                RCC_GetClocksFreq
                0x0000000008001754                RCC_RTCCLKConfig
                0x00000000080017b0                RCC_RTCCLKCmd
                0x00000000080017d0                RCC_BackupResetCmd
                0x00000000080017f0                RCC_I2SCLKConfig
                0x0000000008001810                RCC_SAIBlockACLKConfig
                0x000000000800184c                RCC_SAIBlockBCLKConfig
                0x0000000008001888                RCC_SAIPLLI2SClkDivConfig
                0x00000000080018c8                RCC_SAIPLLSAIClkDivConfig
                0x0000000008001908                RCC_LTDCCLKDivConfig
                0x0000000008001944                RCC_TIMCLKPresConfig
                0x0000000008001964                RCC_AHB1PeriphClockCmd
                0x00000000080019a4                RCC_AHB2PeriphClockCmd
                0x00000000080019e4                RCC_AHB3PeriphClockCmd
                0x0000000008001a24                RCC_APB1PeriphClockCmd
                0x0000000008001a64                RCC_APB2PeriphClockCmd
                0x0000000008001aa4                RCC_AHB1PeriphResetCmd
                0x0000000008001ae4                RCC_AHB2PeriphResetCmd
                0x0000000008001b24                RCC_AHB3PeriphResetCmd
                0x0000000008001b64                RCC_APB1PeriphResetCmd
                0x0000000008001ba4                RCC_APB2PeriphResetCmd
                0x0000000008001be4                RCC_AHB1PeriphClockLPModeCmd
                0x0000000008001c24                RCC_AHB2PeriphClockLPModeCmd
                0x0000000008001c64                RCC_AHB3PeriphClockLPModeCmd
                0x0000000008001ca4                RCC_APB1PeriphClockLPModeCmd
                0x0000000008001ce4                RCC_APB2PeriphClockLPModeCmd
                0x0000000008001d24                RCC_LSEModeConfig
                0x0000000008001d60                RCC_ITConfig
                0x0000000008001dac                RCC_GetFlagStatus
                0x0000000008001e20                RCC_ClearFlag
                0x0000000008001e40                RCC_GetITStatus
                0x0000000008001e78                RCC_ClearITPendingBit
 .text          0x0000000008001e98      0x154 /tmp/cc18XDlS.o
                0x0000000008001e98                SYSCFG_DeInit
                0x0000000008001eb4                SYSCFG_MemoryRemapConfig
                0x0000000008001ed4                SYSCFG_MemorySwappingBank
                0x0000000008001ef4                SYSCFG_EXTILineConfig
                0x0000000008001f78                SYSCFG_ETH_MediaInterfaceConfig
                0x0000000008001f98                SYSCFG_CompensationCellCmd
                0x0000000008001fb8                SYSCFG_GetCompensationCellStatus
 .text          0x0000000008001fec     0x1c18 /tmp/ccNAvCfq.o
                0x0000000008001fec                TIM_DeInit
                0x00000000080021ac                TIM_TimeBaseInit
                0x0000000008002284                TIM_TimeBaseStructInit
                0x00000000080022b8                TIM_PrescalerConfig
                0x00000000080022e0                TIM_CounterModeConfig
                0x0000000008002318                TIM_SetCounter
                0x0000000008002334                TIM_SetAutoreload
                0x0000000008002350                TIM_GetCounter
                0x0000000008002368                TIM_GetPrescaler
                0x0000000008002382                TIM_UpdateDisableConfig
                0x00000000080023c2                TIM_UpdateRequestConfig
                0x0000000008002402                TIM_ARRPreloadConfig
                0x0000000008002442                TIM_SelectOnePulseMode
                0x000000000800247a                TIM_SetClockDivision
                0x00000000080024b2                TIM_Cmd
                0x00000000080024f2                TIM_OC1Init
                0x00000000080025e8                TIM_OC2Init
                0x00000000080026f8                TIM_OC3Init
                0x0000000008002804                TIM_OC4Init
                0x00000000080028d4                TIM_OCStructInit
                0x0000000008002918                TIM_SelectOCxM
                0x00000000080029ca                TIM_SetCompare1
                0x00000000080029e6                TIM_SetCompare2
                0x0000000008002a02                TIM_SetCompare3
                0x0000000008002a1e                TIM_SetCompare4
                0x0000000008002a3a                TIM_ForcedOC1Config
                0x0000000008002a72                TIM_ForcedOC2Config
                0x0000000008002aae                TIM_ForcedOC3Config
                0x0000000008002ae6                TIM_ForcedOC4Config
                0x0000000008002b22                TIM_OC1PreloadConfig
                0x0000000008002b5a                TIM_OC2PreloadConfig
                0x0000000008002b96                TIM_OC3PreloadConfig
                0x0000000008002bce                TIM_OC4PreloadConfig
                0x0000000008002c0a                TIM_OC1FastConfig
                0x0000000008002c42                TIM_OC2FastConfig
                0x0000000008002c7e                TIM_OC3FastConfig
                0x0000000008002cb6                TIM_OC4FastConfig
                0x0000000008002cf2                TIM_ClearOC1Ref
                0x0000000008002d2a                TIM_ClearOC2Ref
                0x0000000008002d66                TIM_ClearOC3Ref
                0x0000000008002d9e                TIM_ClearOC4Ref
                0x0000000008002dda                TIM_OC1PolarityConfig
                0x0000000008002e12                TIM_OC1NPolarityConfig
                0x0000000008002e4a                TIM_OC2PolarityConfig
                0x0000000008002e86                TIM_OC2NPolarityConfig
                0x0000000008002ec2                TIM_OC3PolarityConfig
                0x0000000008002efe                TIM_OC3NPolarityConfig
                0x0000000008002f3a                TIM_OC4PolarityConfig
                0x0000000008002f76                TIM_CCxCmd
                0x0000000008002fcc                TIM_CCxNCmd
                0x0000000008003022                TIM_ICInit
                0x00000000080030ca                TIM_ICStructInit
                0x00000000080030fc                TIM_PWMIConfig
                0x00000000080031b4                TIM_GetCapture1
                0x00000000080031cc                TIM_GetCapture2
                0x00000000080031e4                TIM_GetCapture3
                0x00000000080031fc                TIM_GetCapture4
                0x0000000008003214                TIM_SetIC1Prescaler
                0x000000000800324c                TIM_SetIC2Prescaler
                0x0000000008003288                TIM_SetIC3Prescaler
                0x00000000080032c0                TIM_SetIC4Prescaler
                0x00000000080032fc                TIM_BDTRConfig
                0x000000000800334c                TIM_BDTRStructInit
                0x000000000800338a                TIM_CtrlPWMOutputs
                0x00000000080033d6                TIM_SelectCOM
                0x0000000008003416                TIM_CCPreloadControl
                0x0000000008003456                TIM_ITConfig
                0x000000000800349e                TIM_GenerateEvent
                0x00000000080034bc                TIM_GetFlagStatus
                0x00000000080034f4                TIM_ClearFlag
                0x0000000008003516                TIM_GetITStatus
                0x000000000800356a                TIM_ClearITPendingBit
                0x000000000800358c                TIM_DMAConfig
                0x00000000080035b6                TIM_DMACmd
                0x00000000080035fe                TIM_SelectCCDMA
                0x000000000800363e                TIM_InternalClockConfig
                0x0000000008003662                TIM_ITRxExternalClockConfig
                0x0000000008003690                TIM_TIxExternalClockConfig
                0x00000000080036ec                TIM_ETRClockMode1Config
                0x000000000800374a                TIM_ETRClockMode2Config
                0x0000000008003788                TIM_SelectInputTrigger
                0x00000000080037c0                TIM_SelectOutputTrigger
                0x00000000080037f8                TIM_SelectSlaveMode
                0x0000000008003830                TIM_SelectMasterSlaveMode
                0x0000000008003868                TIM_ETRConfig
                0x00000000080038bc                TIM_EncoderInterfaceConfig
                0x0000000008003954                TIM_SelectHallSensor
                0x0000000008003994                TIM_RemapConfig
 .text          0x0000000008003c04      0x970 /tmp/ccZjBspY.o
                0x0000000008003c04                USART_DeInit
                0x0000000008003d1c                USART_Init
                0x0000000008003e90                USART_StructInit
                0x0000000008003eca                USART_ClockInit
                0x0000000008003f20                USART_ClockStructInit
                0x0000000008003f4c                USART_Cmd
                0x0000000008003f8c                USART_SetPrescaler
                0x0000000008003fc6                USART_OverSampling8Cmd
                0x000000000800400a                USART_OneBitMethodCmd
                0x000000000800404a                USART_SendData
                0x000000000800406e                USART_ReceiveData
                0x000000000800408e                USART_SetAddress
                0x00000000080040c8                USART_ReceiverWakeUpCmd
                0x0000000008004108                USART_WakeUpConfig
                0x0000000008004140                USART_LINBreakDetectLengthConfig
                0x0000000008004178                USART_LINCmd
                0x00000000080041b8                USART_SendBreak
                0x00000000080041dc                USART_HalfDuplexCmd
                0x000000000800421c                USART_SetGuardTime
                0x0000000008004258                USART_SmartCardCmd
                0x0000000008004298                USART_SmartCardNACKCmd
                0x00000000080042d8                USART_IrDAConfig
                0x0000000008004310                USART_IrDACmd
                0x0000000008004350                USART_DMACmd
                0x0000000008004398                USART_ITConfig
                0x0000000008004428                USART_GetFlagStatus
                0x0000000008004460                USART_ClearFlag
                0x0000000008004482                USART_GetITStatus
                0x0000000008004538                USART_ClearITPendingBit
 .text          0x0000000008004574        0x0 /usr/bin/../lib/gcc/arm-none-eabi/6.3.1/../../../../arm-none-eabi/lib/thumb/v7e-m/fpv4-sp/hard/libg.a(lib_a-exit.o)
 .text.exit     0x0000000008004574       0x20 /usr/bin/../lib/gcc/arm-none-eabi/6.3.1/../../../../arm-none-eabi/lib/thumb/v7e-m/fpv4-sp/hard/libg.a(lib_a-exit.o)
                0x0000000008004574                exit
 .text          0x0000000008004594        0x0 /usr/bin/../lib/gcc/arm-none-eabi/6.3.1/../../../../arm-none-eabi/lib/thumb/v7e-m/fpv4-sp/hard/libg.a(lib_a-impure.o)
 .text          0x0000000008004594        0x0 /usr/bin/../lib/gcc/arm-none-eabi/6.3.1/../../../../arm-none-eabi/lib/thumb/v7e-m/fpv4-sp/hard/libg.a(lib_a-init.o)
 .text.__libc_init_array
                0x0000000008004594       0x50 /usr/bin/../lib/gcc/arm-none-eabi/6.3.1/../../../../arm-none-eabi/lib/thumb/v7e-m/fpv4-sp/hard/libg.a(lib_a-init.o)
                0x0000000008004594                __libc_init_array
 .text          0x00000000080045e4        0x0 /usr/bin/../lib/gcc/arm-none-eabi/6.3.1/../../../../arm-none-eabi/lib/thumb/v7e-m/fpv4-sp/hard/libg.a(lib_a-memset.o)
 .text.memset   0x00000000080045e4       0x9c /usr/bin/../lib/gcc/arm-none-eabi/6.3.1/../../../../arm-none-eabi/lib/thumb/v7e-m/fpv4-sp/hard/libg.a(lib_a-memset.o)
                0x00000000080045e4                memset
 .text          0x0000000008004680        0x0 /usr/bin/../lib/gcc/arm-none-eabi/6.3.1/../../../../arm-none-eabi/lib/thumb/v7e-m/fpv4-sp/hard/libg.a(lib_a-__call_atexit.o)
 .text.startup.register_fini
                0x0000000008004680       0x14 /usr/bin/../lib/gcc/arm-none-eabi/6.3.1/../../../../arm-none-eabi/lib/thumb/v7e-m/fpv4-sp/hard/libg.a(lib_a-__call_atexit.o)
 .text.__call_exitprocs
                0x0000000008004694       0xe8 /usr/bin/../lib/gcc/arm-none-eabi/6.3.1/../../../../arm-none-eabi/lib/thumb/v7e-m/fpv4-sp/hard/libg.a(lib_a-__call_atexit.o)
                0x0000000008004694                __call_exitprocs
 .text          0x000000000800477c        0x0 /usr/bin/../lib/gcc/arm-none-eabi/6.3.1/../../../../arm-none-eabi/lib/thumb/v7e-m/fpv4-sp/hard/libg.a(lib_a-atexit.o)
 .text.atexit   0x000000000800477c        0xc /usr/bin/../lib/gcc/arm-none-eabi/6.3.1/../../../../arm-none-eabi/lib/thumb/v7e-m/fpv4-sp/hard/libg.a(lib_a-atexit.o)
                0x000000000800477c                atexit
 .text          0x0000000008004788        0x0 /usr/bin/../lib/gcc/arm-none-eabi/6.3.1/../../../../arm-none-eabi/lib/thumb/v7e-m/fpv4-sp/hard/libg.a(lib_a-fini.o)
 .text.__libc_fini_array
                0x0000000008004788       0x34 /usr/bin/../lib/gcc/arm-none-eabi/6.3.1/../../../../arm-none-eabi/lib/thumb/v7e-m/fpv4-sp/hard/libg.a(lib_a-fini.o)
                0x0000000008004788                __libc_fini_array
 .text          0x00000000080047bc        0x0 /usr/bin/../lib/gcc/arm-none-eabi/6.3.1/../../../../arm-none-eabi/lib/thumb/v7e-m/fpv4-sp/hard/libg.a(lib_a-lock.o)
 .text.__retarget_lock_init
                0x00000000080047bc        0x4 /usr/bin/../lib/gcc/arm-none-eabi/6.3.1/../../../../arm-none-eabi/lib/thumb/v7e-m/fpv4-sp/hard/libg.a(lib_a-lock.o)
                0x00000000080047bc                __retarget_lock_init
 .text.__retarget_lock_init_recursive
                0x00000000080047c0        0x4 /usr/bin/../lib/gcc/arm-none-eabi/6.3.1/../../../../arm-none-eabi/lib/thumb/v7e-m/fpv4-sp/hard/libg.a(lib_a-lock.o)
                0x00000000080047c0                __retarget_lock_init_recursive
 .text.__retarget_lock_close
                0x00000000080047c4        0x4 /usr/bin/../lib/gcc/arm-none-eabi/6.3.1/../../../../arm-none-eabi/lib/thumb/v7e-m/fpv4-sp/hard/libg.a(lib_a-lock.o)
                0x00000000080047c4                __retarget_lock_close
 .text.__retarget_lock_close_recursive
                0x00000000080047c8        0x4 /usr/bin/../lib/gcc/arm-none-eabi/6.3.1/../../../../arm-none-eabi/lib/thumb/v7e-m/fpv4-sp/hard/libg.a(lib_a-lock.o)
                0x00000000080047c8                __retarget_lock_close_recursive
 .text.__retarget_lock_acquire
                0x00000000080047cc        0x4 /usr/bin/../lib/gcc/arm-none-eabi/6.3.1/../../../../arm-none-eabi/lib/thumb/v7e-m/fpv4-sp/hard/libg.a(lib_a-lock.o)
                0x00000000080047cc                __retarget_lock_acquire
 .text.__retarget_lock_acquire_recursive
                0x00000000080047d0        0x4 /usr/bin/../lib/gcc/arm-none-eabi/6.3.1/../../../../arm-none-eabi/lib/thumb/v7e-m/fpv4-sp/hard/libg.a(lib_a-lock.o)
                0x00000000080047d0                __retarget_lock_acquire_recursive
 .text.__retarget_lock_try_acquire
                0x00000000080047d4        0x4 /usr/bin/../lib/gcc/arm-none-eabi/6.3.1/../../../../arm-none-eabi/lib/thumb/v7e-m/fpv4-sp/hard/libg.a(lib_a-lock.o)
                0x00000000080047d4                __retarget_lock_try_acquire
 .text.__retarget_lock_try_acquire_recursive
                0x00000000080047d8        0x4 /usr/bin/../lib/gcc/arm-none-eabi/6.3.1/../../../../arm-none-eabi/lib/thumb/v7e-m/fpv4-sp/hard/libg.a(lib_a-lock.o)
                0x00000000080047d8                __retarget_lock_try_acquire_recursive
 .text.__retarget_lock_release
                0x00000000080047dc        0x4 /usr/bin/../lib/gcc/arm-none-eabi/6.3.1/../../../../arm-none-eabi/lib/thumb/v7e-m/fpv4-sp/hard/libg.a(lib_a-lock.o)
                0x00000000080047dc                __retarget_lock_release
 .text.__retarget_lock_release_recursive
                0x00000000080047e0        0x4 /usr/bin/../lib/gcc/arm-none-eabi/6.3.1/../../../../arm-none-eabi/lib/thumb/v7e-m/fpv4-sp/hard/libg.a(lib_a-lock.o)
                0x00000000080047e0                __retarget_lock_release_recursive
 .text          0x00000000080047e4        0x0 /usr/bin/../lib/gcc/arm-none-eabi/6.3.1/../../../../arm-none-eabi/lib/thumb/v7e-m/fpv4-sp/hard/libg.a(lib_a-__atexit.o)
 .text.__register_exitproc
                0x00000000080047e4       0xc4 /usr/bin/../lib/gcc/arm-none-eabi/6.3.1/../../../../arm-none-eabi/lib/thumb/v7e-m/fpv4-sp/hard/libg.a(lib_a-__atexit.o)
                0x00000000080047e4                __register_exitproc
 .text          0x00000000080048a8        0x0 /usr/bin/../lib/gcc/arm-none-eabi/6.3.1/../../../../arm-none-eabi/lib/thumb/v7e-m/fpv4-sp/hard/libnosys.a(_exit.o)
 .text._exit    0x00000000080048a8        0x4 /usr/bin/../lib/gcc/arm-none-eabi/6.3.1/../../../../arm-none-eabi/lib/thumb/v7e-m/fpv4-sp/hard/libnosys.a(_exit.o)
                0x00000000080048a8                _exit
 .text          0x00000000080048ac        0x0 /usr/bin/../lib/gcc/arm-none-eabi/6.3.1/thumb/v7e-m/fpv4-sp/hard/crtend.o
 .text          0x00000000080048ac        0x0 /usr/bin/../lib/gcc/arm-none-eabi/6.3.1/thumb/v7e-m/fpv4-sp/hard/crtn.o
                0x00000000080048ac                . = ALIGN (0x4)
 *(.rodata*)
 .rodata._global_impure_ptr
                0x00000000080048ac        0x4 /usr/bin/../lib/gcc/arm-none-eabi/6.3.1/../../../../arm-none-eabi/lib/thumb/v7e-m/fpv4-sp/hard/libg.a(lib_a-impure.o)
                0x00000000080048ac                _global_impure_ptr
                0x00000000080048b0                . = ALIGN (0x4)

.glue_7         0x00000000080048b0        0x0
 .glue_7        0x00000000080048b0        0x0 linker stubs

.glue_7t        0x00000000080048b0        0x0
 .glue_7t       0x00000000080048b0        0x0 linker stubs

.vfp11_veneer   0x00000000080048b0        0x0
 .vfp11_veneer  0x00000000080048b0        0x0 linker stubs

.v4_bx          0x00000000080048b0        0x0
 .v4_bx         0x00000000080048b0        0x0 linker stubs

.init           0x00000000080048b0        0xc
 .init          0x00000000080048b0        0x4 /usr/bin/../lib/gcc/arm-none-eabi/6.3.1/thumb/v7e-m/fpv4-sp/hard/crti.o
                0x00000000080048b0                _init
 .init          0x00000000080048b4        0x8 /usr/bin/../lib/gcc/arm-none-eabi/6.3.1/thumb/v7e-m/fpv4-sp/hard/crtn.o

.fini           0x00000000080048bc        0xc
 .fini          0x00000000080048bc        0x4 /usr/bin/../lib/gcc/arm-none-eabi/6.3.1/thumb/v7e-m/fpv4-sp/hard/crti.o
                0x00000000080048bc                _fini
 .fini          0x00000000080048c0        0x8 /usr/bin/../lib/gcc/arm-none-eabi/6.3.1/thumb/v7e-m/fpv4-sp/hard/crtn.o

.iplt           0x00000000080048c8        0x0
 .iplt          0x00000000080048c8        0x0 /usr/bin/../lib/gcc/arm-none-eabi/6.3.1/thumb/v7e-m/fpv4-sp/hard/crtbegin.o

.rel.dyn        0x00000000080048c8        0x0
 .rel.iplt      0x00000000080048c8        0x0 /usr/bin/../lib/gcc/arm-none-eabi/6.3.1/thumb/v7e-m/fpv4-sp/hard/crtbegin.o
                0x00000000080048c8                . = ALIGN (0x4)
                0x00000000080048c8                _etext = .

.data           0x0000000020000000      0x45c load address 0x00000000080048c8
                0x0000000020000000                _sdata = .
 *(.data*)
 .data          0x0000000020000000        0x0 /usr/bin/../lib/gcc/arm-none-eabi/6.3.1/thumb/v7e-m/fpv4-sp/hard/crti.o
 .data          0x0000000020000000        0x4 /usr/bin/../lib/gcc/arm-none-eabi/6.3.1/thumb/v7e-m/fpv4-sp/hard/crtbegin.o
                0x0000000020000000                __dso_handle
 .data          0x0000000020000004        0x0 /usr/bin/../lib/gcc/arm-none-eabi/6.3.1/../../../../arm-none-eabi/lib/thumb/v7e-m/fpv4-sp/hard/crt0.o
 .data          0x0000000020000004        0x0 /tmp/cclHCGL5.o
 .data          0x0000000020000004        0x0 /tmp/ccTnjpyB.o
 .data          0x0000000020000004        0x0 /tmp/ccTcYPv7.o
 .data          0x0000000020000004       0x14 /tmp/cchBADED.o
                0x0000000020000004                SystemCoreClock
                0x0000000020000008                AHBPrescTable
 .data          0x0000000020000018        0x0 /tmp/ccTTkfY9.o
 .data          0x0000000020000018        0x0 /tmp/ccCAOrjG.o
 .data          0x0000000020000018        0x0 /tmp/ccvjzZOc.o
 .data          0x0000000020000018        0x0 /tmp/cc5AnKvJ.o
 .data          0x0000000020000018        0x0 /tmp/ccVbKMng.o
 .data          0x0000000020000018        0x0 /tmp/ccU2mvsN.o
 .data          0x0000000020000018       0x10 /tmp/ccv5pbNk.o
 .data          0x0000000020000028        0x0 /tmp/cc18XDlS.o
 .data          0x0000000020000028        0x0 /tmp/ccNAvCfq.o
 .data          0x0000000020000028        0x0 /tmp/ccZjBspY.o
 .data          0x0000000020000028        0x0 /usr/bin/../lib/gcc/arm-none-eabi/6.3.1/../../../../arm-none-eabi/lib/thumb/v7e-m/fpv4-sp/hard/libg.a(lib_a-exit.o)
 .data          0x0000000020000028        0x0 /usr/bin/../lib/gcc/arm-none-eabi/6.3.1/../../../../arm-none-eabi/lib/thumb/v7e-m/fpv4-sp/hard/libg.a(lib_a-impure.o)
 .data._impure_ptr
                0x0000000020000028        0x4 /usr/bin/../lib/gcc/arm-none-eabi/6.3.1/../../../../arm-none-eabi/lib/thumb/v7e-m/fpv4-sp/hard/libg.a(lib_a-impure.o)
                0x0000000020000028                _impure_ptr
 *fill*         0x000000002000002c        0x4 
 .data.impure_data
                0x0000000020000030      0x428 /usr/bin/../lib/gcc/arm-none-eabi/6.3.1/../../../../arm-none-eabi/lib/thumb/v7e-m/fpv4-sp/hard/libg.a(lib_a-impure.o)
 .data          0x0000000020000458        0x0 /usr/bin/../lib/gcc/arm-none-eabi/6.3.1/../../../../arm-none-eabi/lib/thumb/v7e-m/fpv4-sp/hard/libg.a(lib_a-init.o)
 .data          0x0000000020000458        0x0 /usr/bin/../lib/gcc/arm-none-eabi/6.3.1/../../../../arm-none-eabi/lib/thumb/v7e-m/fpv4-sp/hard/libg.a(lib_a-memset.o)
 .data          0x0000000020000458        0x0 /usr/bin/../lib/gcc/arm-none-eabi/6.3.1/../../../../arm-none-eabi/lib/thumb/v7e-m/fpv4-sp/hard/libg.a(lib_a-__call_atexit.o)
 .data.__atexit_recursive_mutex
                0x0000000020000458        0x4 /usr/bin/../lib/gcc/arm-none-eabi/6.3.1/../../../../arm-none-eabi/lib/thumb/v7e-m/fpv4-sp/hard/libg.a(lib_a-__call_atexit.o)
                0x0000000020000458                __atexit_recursive_mutex
 .data          0x000000002000045c        0x0 /usr/bin/../lib/gcc/arm-none-eabi/6.3.1/../../../../arm-none-eabi/lib/thumb/v7e-m/fpv4-sp/hard/libg.a(lib_a-atexit.o)
 .data          0x000000002000045c        0x0 /usr/bin/../lib/gcc/arm-none-eabi/6.3.1/../../../../arm-none-eabi/lib/thumb/v7e-m/fpv4-sp/hard/libg.a(lib_a-fini.o)
 .data          0x000000002000045c        0x0 /usr/bin/../lib/gcc/arm-none-eabi/6.3.1/../../../../arm-none-eabi/lib/thumb/v7e-m/fpv4-sp/hard/libg.a(lib_a-lock.o)
 .data          0x000000002000045c        0x0 /usr/bin/../lib/gcc/arm-none-eabi/6.3.1/../../../../arm-none-eabi/lib/thumb/v7e-m/fpv4-sp/hard/libg.a(lib_a-__atexit.o)
 .data          0x000000002000045c        0x0 /usr/bin/../lib/gcc/arm-none-eabi/6.3.1/../../../../arm-none-eabi/lib/thumb/v7e-m/fpv4-sp/hard/libnosys.a(_exit.o)
 .data          0x000000002000045c        0x0 /usr/bin/../lib/gcc/arm-none-eabi/6.3.1/thumb/v7e-m/fpv4-sp/hard/crtend.o
 .data          0x000000002000045c        0x0 /usr/bin/../lib/gcc/arm-none-eabi/6.3.1/thumb/v7e-m/fpv4-sp/hard/crtn.o
                0x000000002000045c                . = ALIGN (0x4)
                0x000000002000045c                _edata = .
                0x00000000080048c8                _sidata = LOADADDR (.data)

.init_array     0x000000002000045c        0x4 load address 0x0000000008004d24
 .init_array    0x000000002000045c        0x4 /usr/bin/../lib/gcc/arm-none-eabi/6.3.1/thumb/v7e-m/fpv4-sp/hard/crtbegin.o

.fini_array     0x0000000020000460        0x4 load address 0x0000000008004d28
 .fini_array    0x0000000020000460        0x4 /usr/bin/../lib/gcc/arm-none-eabi/6.3.1/thumb/v7e-m/fpv4-sp/hard/crtbegin.o

.jcr            0x0000000020000464        0x4 load address 0x0000000008004d2c
 .jcr           0x0000000020000464        0x0 /usr/bin/../lib/gcc/arm-none-eabi/6.3.1/thumb/v7e-m/fpv4-sp/hard/crtbegin.o
 .jcr           0x0000000020000464        0x4 /usr/bin/../lib/gcc/arm-none-eabi/6.3.1/thumb/v7e-m/fpv4-sp/hard/crtend.o

.igot.plt       0x0000000020000468        0x0 load address 0x0000000008004d30
 .igot.plt      0x0000000020000468        0x0 /usr/bin/../lib/gcc/arm-none-eabi/6.3.1/thumb/v7e-m/fpv4-sp/hard/crtbegin.o

.init_array.00000
                0x0000000020000468        0x4 load address 0x0000000008004d30
 .init_array.00000
                0x0000000020000468        0x4 /usr/bin/../lib/gcc/arm-none-eabi/6.3.1/../../../../arm-none-eabi/lib/thumb/v7e-m/fpv4-sp/hard/libg.a(lib_a-__call_atexit.o)

.bss            0x0000000020000470       0x4c load address 0x0000000008004d34
                0x0000000020000470                __bss_start__ = .
                0x0000000020000470                _sbss = .
 *(.bss*)
 .bss           0x0000000020000470        0x0 /usr/bin/../lib/gcc/arm-none-eabi/6.3.1/thumb/v7e-m/fpv4-sp/hard/crti.o
 .bss           0x0000000020000470       0x1c /usr/bin/../lib/gcc/arm-none-eabi/6.3.1/thumb/v7e-m/fpv4-sp/hard/crtbegin.o
 .bss           0x000000002000048c        0x0 /usr/bin/../lib/gcc/arm-none-eabi/6.3.1/../../../../arm-none-eabi/lib/thumb/v7e-m/fpv4-sp/hard/crt0.o
 .bss           0x000000002000048c        0x0 /tmp/cclHCGL5.o
 .bss           0x000000002000048c        0x0 /tmp/ccTnjpyB.o
 *fill*         0x000000002000048c        0x4 
 .bss           0x0000000020000490        0x8 /tmp/ccTcYPv7.o
                0x0000000020000490                msTicks
 .bss           0x0000000020000498        0x0 /tmp/cchBADED.o
 .bss           0x0000000020000498        0x0 /tmp/ccTTkfY9.o
 .bss           0x0000000020000498        0x0 /tmp/ccCAOrjG.o
 .bss           0x0000000020000498        0x0 /tmp/ccvjzZOc.o
 .bss           0x0000000020000498        0x0 /tmp/cc5AnKvJ.o
 .bss           0x0000000020000498        0x0 /tmp/ccVbKMng.o
 .bss           0x0000000020000498        0x0 /tmp/ccU2mvsN.o
 .bss           0x0000000020000498        0x0 /tmp/ccv5pbNk.o
 .bss           0x0000000020000498        0x0 /tmp/cc18XDlS.o
 .bss           0x0000000020000498        0x0 /tmp/ccNAvCfq.o
 .bss           0x0000000020000498        0x0 /tmp/ccZjBspY.o
 .bss           0x0000000020000498        0x0 /usr/bin/../lib/gcc/arm-none-eabi/6.3.1/../../../../arm-none-eabi/lib/thumb/v7e-m/fpv4-sp/hard/libg.a(lib_a-exit.o)
 .bss           0x0000000020000498        0x0 /usr/bin/../lib/gcc/arm-none-eabi/6.3.1/../../../../arm-none-eabi/lib/thumb/v7e-m/fpv4-sp/hard/libg.a(lib_a-impure.o)
 .bss           0x0000000020000498        0x0 /usr/bin/../lib/gcc/arm-none-eabi/6.3.1/../../../../arm-none-eabi/lib/thumb/v7e-m/fpv4-sp/hard/libg.a(lib_a-init.o)
 .bss           0x0000000020000498        0x0 /usr/bin/../lib/gcc/arm-none-eabi/6.3.1/../../../../arm-none-eabi/lib/thumb/v7e-m/fpv4-sp/hard/libg.a(lib_a-memset.o)
 .bss           0x0000000020000498        0x0 /usr/bin/../lib/gcc/arm-none-eabi/6.3.1/../../../../arm-none-eabi/lib/thumb/v7e-m/fpv4-sp/hard/libg.a(lib_a-__call_atexit.o)
 .bss           0x0000000020000498        0x0 /usr/bin/../lib/gcc/arm-none-eabi/6.3.1/../../../../arm-none-eabi/lib/thumb/v7e-m/fpv4-sp/hard/libg.a(lib_a-atexit.o)
 .bss           0x0000000020000498        0x0 /usr/bin/../lib/gcc/arm-none-eabi/6.3.1/../../../../arm-none-eabi/lib/thumb/v7e-m/fpv4-sp/hard/libg.a(lib_a-fini.o)
 .bss           0x0000000020000498        0x0 /usr/bin/../lib/gcc/arm-none-eabi/6.3.1/../../../../arm-none-eabi/lib/thumb/v7e-m/fpv4-sp/hard/libg.a(lib_a-lock.o)
 .bss           0x0000000020000498        0x0 /usr/bin/../lib/gcc/arm-none-eabi/6.3.1/../../../../arm-none-eabi/lib/thumb/v7e-m/fpv4-sp/hard/libg.a(lib_a-__atexit.o)
 .bss           0x0000000020000498        0x0 /usr/bin/../lib/gcc/arm-none-eabi/6.3.1/../../../../arm-none-eabi/lib/thumb/v7e-m/fpv4-sp/hard/libnosys.a(_exit.o)
 .bss           0x0000000020000498        0x0 /usr/bin/../lib/gcc/arm-none-eabi/6.3.1/thumb/v7e-m/fpv4-sp/hard/crtend.o
 .bss           0x0000000020000498        0x0 /usr/bin/../lib/gcc/arm-none-eabi/6.3.1/thumb/v7e-m/fpv4-sp/hard/crtn.o
 *(COMMON)
 COMMON         0x0000000020000498       0x21 /usr/bin/../lib/gcc/arm-none-eabi/6.3.1/../../../../arm-none-eabi/lib/thumb/v7e-m/fpv4-sp/hard/libg.a(lib_a-lock.o)
                0x0000000020000498                __lock___atexit_recursive_mutex
                0x000000002000049c                __lock___arc4random_mutex
                0x00000000200004a0                __lock___env_recursive_mutex
                0x00000000200004a4                __lock___sinit_recursive_mutex
                0x00000000200004a8                __lock___malloc_recursive_mutex
                0x00000000200004ac                __lock___at_quick_exit_mutex
                0x00000000200004b0                __lock___dd_hash_mutex
                0x00000000200004b4                __lock___tz_mutex
                0x00000000200004b8                __lock___sfp_recursive_mutex
                0x00000000200004bc                . = ALIGN (0x4)
 *fill*         0x00000000200004b9        0x3 
                0x00000000200004bc                _ebss = .
                0x00000000200004bc                __bss_end__ = .
                0x00000000200004bc                . = ALIGN (0x4)
                0x00000000200004bc                end = .
                0x0000000020020000                PROVIDE (_estack, (ORIGIN (ram) + LENGTH (ram)))
OUTPUT(build/template.elf elf32-littlearm)

.ARM.attributes
                0x0000000000000000       0x30
 .ARM.attributes
                0x0000000000000000       0x22 /usr/bin/../lib/gcc/arm-none-eabi/6.3.1/thumb/v7e-m/fpv4-sp/hard/crti.o
 .ARM.attributes
                0x0000000000000022       0x34 /usr/bin/../lib/gcc/arm-none-eabi/6.3.1/thumb/v7e-m/fpv4-sp/hard/crtbegin.o
 .ARM.attributes
                0x0000000000000056       0x20 /usr/bin/../lib/gcc/arm-none-eabi/6.3.1/../../../../arm-none-eabi/lib/thumb/v7e-m/fpv4-sp/hard/crt0.o
 .ARM.attributes
                0x0000000000000076       0x39 /tmp/cclHCGL5.o
 .ARM.attributes
                0x00000000000000af       0x39 /tmp/ccTnjpyB.o
 .ARM.attributes
                0x00000000000000e8       0x39 /tmp/ccTcYPv7.o
 .ARM.attributes
                0x0000000000000121       0x39 /tmp/cchBADED.o
 .ARM.attributes
                0x000000000000015a       0x39 /tmp/ccTTkfY9.o
 .ARM.attributes
                0x0000000000000193       0x21 /tmp/ccCAOrjG.o
 .ARM.attributes
                0x00000000000001b4       0x39 /tmp/ccvjzZOc.o
 .ARM.attributes
                0x00000000000001ed       0x39 /tmp/cc5AnKvJ.o
 .ARM.attributes
                0x0000000000000226       0x39 /tmp/ccVbKMng.o
 .ARM.attributes
                0x000000000000025f       0x39 /tmp/ccU2mvsN.o
 .ARM.attributes
                0x0000000000000298       0x39 /tmp/ccv5pbNk.o
 .ARM.attributes
                0x00000000000002d1       0x39 /tmp/cc18XDlS.o
 .ARM.attributes
                0x000000000000030a       0x39 /tmp/ccNAvCfq.o
 .ARM.attributes
                0x0000000000000343       0x39 /tmp/ccZjBspY.o
 .ARM.attributes
                0x000000000000037c       0x34 /usr/bin/../lib/gcc/arm-none-eabi/6.3.1/../../../../arm-none-eabi/lib/thumb/v7e-m/fpv4-sp/hard/libg.a(lib_a-exit.o)
 .ARM.attributes
                0x00000000000003b0       0x34 /usr/bin/../lib/gcc/arm-none-eabi/6.3.1/../../../../arm-none-eabi/lib/thumb/v7e-m/fpv4-sp/hard/libg.a(lib_a-impure.o)
 .ARM.attributes
                0x00000000000003e4       0x34 /usr/bin/../lib/gcc/arm-none-eabi/6.3.1/../../../../arm-none-eabi/lib/thumb/v7e-m/fpv4-sp/hard/libg.a(lib_a-init.o)
 .ARM.attributes
                0x0000000000000418       0x34 /usr/bin/../lib/gcc/arm-none-eabi/6.3.1/../../../../arm-none-eabi/lib/thumb/v7e-m/fpv4-sp/hard/libg.a(lib_a-memset.o)
 .ARM.attributes
                0x000000000000044c       0x34 /usr/bin/../lib/gcc/arm-none-eabi/6.3.1/../../../../arm-none-eabi/lib/thumb/v7e-m/fpv4-sp/hard/libg.a(lib_a-__call_atexit.o)
 .ARM.attributes
                0x0000000000000480       0x34 /usr/bin/../lib/gcc/arm-none-eabi/6.3.1/../../../../arm-none-eabi/lib/thumb/v7e-m/fpv4-sp/hard/libg.a(lib_a-atexit.o)
 .ARM.attributes
                0x00000000000004b4       0x34 /usr/bin/../lib/gcc/arm-none-eabi/6.3.1/../../../../arm-none-eabi/lib/thumb/v7e-m/fpv4-sp/hard/libg.a(lib_a-fini.o)
 .ARM.attributes
                0x00000000000004e8       0x34 /usr/bin/../lib/gcc/arm-none-eabi/6.3.1/../../../../arm-none-eabi/lib/thumb/v7e-m/fpv4-sp/hard/libg.a(lib_a-lock.o)
 .ARM.attributes
                0x000000000000051c       0x34 /usr/bin/../lib/gcc/arm-none-eabi/6.3.1/../../../../arm-none-eabi/lib/thumb/v7e-m/fpv4-sp/hard/libg.a(lib_a-__atexit.o)
 .ARM.attributes
                0x0000000000000550       0x34 /usr/bin/../lib/gcc/arm-none-eabi/6.3.1/../../../../arm-none-eabi/lib/thumb/v7e-m/fpv4-sp/hard/libnosys.a(_exit.o)
 .ARM.attributes
                0x0000000000000584       0x34 /usr/bin/../lib/gcc/arm-none-eabi/6.3.1/thumb/v7e-m/fpv4-sp/hard/crtend.o
 .ARM.attributes
                0x00000000000005b8       0x22 /usr/bin/../lib/gcc/arm-none-eabi/6.3.1/thumb/v7e-m/fpv4-sp/hard/crtn.o

.comment        0x0000000000000000       0x7f
 .comment       0x0000000000000000       0x7f /tmp/cclHCGL5.o
                                         0x80 (size before relaxing)
 .comment       0x000000000000007f       0x80 /tmp/ccTnjpyB.o
 .comment       0x000000000000007f       0x80 /tmp/ccTcYPv7.o
 .comment       0x000000000000007f       0x80 /tmp/cchBADED.o
 .comment       0x000000000000007f       0x80 /tmp/ccTTkfY9.o
 .comment       0x000000000000007f       0x80 /tmp/ccvjzZOc.o
 .comment       0x000000000000007f       0x80 /tmp/cc5AnKvJ.o
 .comment       0x000000000000007f       0x80 /tmp/ccVbKMng.o
 .comment       0x000000000000007f       0x80 /tmp/ccU2mvsN.o
 .comment       0x000000000000007f       0x80 /tmp/ccv5pbNk.o
 .comment       0x000000000000007f       0x80 /tmp/cc18XDlS.o
 .comment       0x000000000000007f       0x80 /tmp/ccNAvCfq.o
 .comment       0x000000000000007f       0x80 /tmp/ccZjBspY.o

.debug_info     0x0000000000000000     0x5f6d
 .debug_info    0x0000000000000000      0xb6f /tmp/cclHCGL5.o
 .debug_info    0x0000000000000b6f       0xfe /tmp/ccTnjpyB.o
 .debug_info    0x0000000000000c6d      0x190 /tmp/ccTcYPv7.o
 .debug_info    0x0000000000000dfd      0x614 /tmp/cchBADED.o
 .debug_info    0x0000000000001411      0x2be /tmp/ccTTkfY9.o
 .debug_info    0x00000000000016cf       0x8c /tmp/ccCAOrjG.o
 .debug_info    0x000000000000175b      0x54d /tmp/ccvjzZOc.o
 .debug_info    0x0000000000001ca8      0x1ef /tmp/cc5AnKvJ.o
 .debug_info    0x0000000000001e97      0x357 /tmp/ccVbKMng.o
 .debug_info    0x00000000000021ee      0x628 /tmp/ccU2mvsN.o
 .debug_info    0x0000000000002816      0xe67 /tmp/ccv5pbNk.o
 .debug_info    0x000000000000367d      0x2a7 /tmp/cc18XDlS.o
 .debug_info    0x0000000000003924     0x1c74 /tmp/ccNAvCfq.o
 .debug_info    0x0000000000005598      0x9d5 /tmp/ccZjBspY.o

.debug_abbrev   0x0000000000000000     0x1196
 .debug_abbrev  0x0000000000000000      0x1d5 /tmp/cclHCGL5.o
 .debug_abbrev  0x00000000000001d5       0x96 /tmp/ccTnjpyB.o
 .debug_abbrev  0x000000000000026b       0xa3 /tmp/ccTcYPv7.o
 .debug_abbrev  0x000000000000030e      0x158 /tmp/cchBADED.o
 .debug_abbrev  0x0000000000000466      0x114 /tmp/ccTTkfY9.o
 .debug_abbrev  0x000000000000057a       0x12 /tmp/ccCAOrjG.o
 .debug_abbrev  0x000000000000058c      0x172 /tmp/ccvjzZOc.o
 .debug_abbrev  0x00000000000006fe       0xf3 /tmp/cc5AnKvJ.o
 .debug_abbrev  0x00000000000007f1      0x1bc /tmp/ccVbKMng.o
 .debug_abbrev  0x00000000000009ad      0x1b8 /tmp/ccU2mvsN.o
 .debug_abbrev  0x0000000000000b65      0x1cf /tmp/ccv5pbNk.o
 .debug_abbrev  0x0000000000000d34      0x146 /tmp/cc18XDlS.o
 .debug_abbrev  0x0000000000000e7a      0x19a /tmp/ccNAvCfq.o
 .debug_abbrev  0x0000000000001014      0x182 /tmp/ccZjBspY.o

.debug_aranges  0x0000000000000000      0x1c8
 .debug_aranges
                0x0000000000000000       0x20 /tmp/cclHCGL5.o
 .debug_aranges
                0x0000000000000020       0x20 /tmp/ccTnjpyB.o
 .debug_aranges
                0x0000000000000040       0x20 /tmp/ccTcYPv7.o
 .debug_aranges
                0x0000000000000060       0x20 /tmp/cchBADED.o
 .debug_aranges
                0x0000000000000080       0x20 /tmp/ccTTkfY9.o
 .debug_aranges
                0x00000000000000a0       0x28 /tmp/ccCAOrjG.o
 .debug_aranges
                0x00000000000000c8       0x20 /tmp/ccvjzZOc.o
 .debug_aranges
                0x00000000000000e8       0x20 /tmp/cc5AnKvJ.o
 .debug_aranges
                0x0000000000000108       0x20 /tmp/ccVbKMng.o
 .debug_aranges
                0x0000000000000128       0x20 /tmp/ccU2mvsN.o
 .debug_aranges
                0x0000000000000148       0x20 /tmp/ccv5pbNk.o
 .debug_aranges
                0x0000000000000168       0x20 /tmp/cc18XDlS.o
 .debug_aranges
                0x0000000000000188       0x20 /tmp/ccNAvCfq.o
 .debug_aranges
                0x00000000000001a8       0x20 /tmp/ccZjBspY.o

.debug_line     0x0000000000000000     0x1868
 .debug_line    0x0000000000000000      0x175 /tmp/cclHCGL5.o
 .debug_line    0x0000000000000175       0xdb /tmp/ccTnjpyB.o
 .debug_line    0x0000000000000250      0x108 /tmp/ccTcYPv7.o
 .debug_line    0x0000000000000358      0x151 /tmp/cchBADED.o
 .debug_line    0x00000000000004a9      0x118 /tmp/ccTTkfY9.o
 .debug_line    0x00000000000005c1       0x75 /tmp/ccCAOrjG.o
 .debug_line    0x0000000000000636      0x14c /tmp/ccvjzZOc.o
 .debug_line    0x0000000000000782      0x124 /tmp/cc5AnKvJ.o
 .debug_line    0x00000000000008a6      0x17f /tmp/ccVbKMng.o
 .debug_line    0x0000000000000a25      0x209 /tmp/ccU2mvsN.o
 .debug_line    0x0000000000000c2e      0x309 /tmp/ccv5pbNk.o
 .debug_line    0x0000000000000f37      0x130 /tmp/cc18XDlS.o
 .debug_line    0x0000000000001067      0x55e /tmp/ccNAvCfq.o
 .debug_line    0x00000000000015c5      0x2a3 /tmp/ccZjBspY.o

.debug_str      0x0000000000000000     0x28ec
 .debug_str     0x0000000000000000      0xb2b /tmp/cclHCGL5.o
                                        0xb8f (size before relaxing)
 .debug_str     0x0000000000000b2b       0x23 /tmp/ccTnjpyB.o
                                        0x1ff (size before relaxing)
 .debug_str     0x0000000000000b4e       0xb0 /tmp/ccTcYPv7.o
                                        0x297 (size before relaxing)
 .debug_str     0x0000000000000bfe      0x179 /tmp/cchBADED.o
                                        0x42a (size before relaxing)
 .debug_str     0x0000000000000d77       0x19 /tmp/ccTTkfY9.o
                                        0x391 (size before relaxing)
 .debug_str     0x0000000000000d90      0x17d /tmp/ccvjzZOc.o
                                        0x445 (size before relaxing)
 .debug_str     0x0000000000000f0d       0xbc /tmp/cc5AnKvJ.o
                                        0x2b7 (size before relaxing)
 .debug_str     0x0000000000000fc9      0x1b7 /tmp/ccVbKMng.o
                                        0x3c3 (size before relaxing)
 .debug_str     0x0000000000001180      0x17d /tmp/ccU2mvsN.o
                                        0x517 (size before relaxing)
 .debug_str     0x00000000000012fd      0x69d /tmp/ccv5pbNk.o
                                        0xa39 (size before relaxing)
 .debug_str     0x000000000000199a      0x15d /tmp/cc18XDlS.o
                                        0x385 (size before relaxing)
 .debug_str     0x0000000000001af7      0x9de /tmp/ccNAvCfq.o
                                        0xe47 (size before relaxing)
 .debug_str     0x00000000000024d5      0x417 /tmp/ccZjBspY.o
                                        0x706 (size before relaxing)

.debug_frame    0x0000000000000000     0x265c
 .debug_frame   0x0000000000000000       0xa0 /tmp/cclHCGL5.o
 .debug_frame   0x00000000000000a0       0x38 /tmp/ccTnjpyB.o
 .debug_frame   0x00000000000000d8      0x138 /tmp/ccTcYPv7.o
 .debug_frame   0x0000000000000210       0x7c /tmp/cchBADED.o
 .debug_frame   0x000000000000028c       0x34 /tmp/ccTTkfY9.o
 .debug_frame   0x00000000000002c0       0xd8 /tmp/ccvjzZOc.o
 .debug_frame   0x0000000000000398       0xc8 /tmp/cc5AnKvJ.o
 .debug_frame   0x0000000000000460      0x148 /tmp/ccVbKMng.o
 .debug_frame   0x00000000000005a8      0x23c /tmp/ccU2mvsN.o
 .debug_frame   0x00000000000007e4      0x83c /tmp/ccv5pbNk.o
 .debug_frame   0x0000000000001020      0x11c /tmp/cc18XDlS.o
 .debug_frame   0x000000000000113c      0xe54 /tmp/ccNAvCfq.o
 .debug_frame   0x0000000000001f90      0x490 /tmp/ccZjBspY.o
 .debug_frame   0x0000000000002420       0x28 /usr/bin/../lib/gcc/arm-none-eabi/6.3.1/../../../../arm-none-eabi/lib/thumb/v7e-m/fpv4-sp/hard/libg.a(lib_a-exit.o)
 .debug_frame   0x0000000000002448       0x2c /usr/bin/../lib/gcc/arm-none-eabi/6.3.1/../../../../arm-none-eabi/lib/thumb/v7e-m/fpv4-sp/hard/libg.a(lib_a-init.o)
 .debug_frame   0x0000000000002474       0x34 /usr/bin/../lib/gcc/arm-none-eabi/6.3.1/../../../../arm-none-eabi/lib/thumb/v7e-m/fpv4-sp/hard/libg.a(lib_a-memset.o)
 .debug_frame   0x00000000000024a8       0x5c /usr/bin/../lib/gcc/arm-none-eabi/6.3.1/../../../../arm-none-eabi/lib/thumb/v7e-m/fpv4-sp/hard/libg.a(lib_a-__call_atexit.o)
 .debug_frame   0x0000000000002504       0x20 /usr/bin/../lib/gcc/arm-none-eabi/6.3.1/../../../../arm-none-eabi/lib/thumb/v7e-m/fpv4-sp/hard/libg.a(lib_a-atexit.o)
 .debug_frame   0x0000000000002524       0x34 /usr/bin/../lib/gcc/arm-none-eabi/6.3.1/../../../../arm-none-eabi/lib/thumb/v7e-m/fpv4-sp/hard/libg.a(lib_a-fini.o)
 .debug_frame   0x0000000000002558       0xb0 /usr/bin/../lib/gcc/arm-none-eabi/6.3.1/../../../../arm-none-eabi/lib/thumb/v7e-m/fpv4-sp/hard/libg.a(lib_a-lock.o)
 .debug_frame   0x0000000000002608       0x34 /usr/bin/../lib/gcc/arm-none-eabi/6.3.1/../../../../arm-none-eabi/lib/thumb/v7e-m/fpv4-sp/hard/libg.a(lib_a-__atexit.o)
 .debug_frame   0x000000000000263c       0x20 /usr/bin/../lib/gcc/arm-none-eabi/6.3.1/../../../../arm-none-eabi/lib/thumb/v7e-m/fpv4-sp/hard/libnosys.a(_exit.o)

.debug_ranges   0x0000000000000000       0x20
 .debug_ranges  0x0000000000000000       0x20 /tmp/ccCAOrjG.o
