Archive member included to satisfy reference by file (symbol)

/usr/bin/../lib/gcc/arm-none-eabi/6.3.1/../../../../arm-none-eabi/lib/thumb/v7e-m/fpv4-sp/hard/libg.a(lib_a-exit.o)
                              /usr/bin/../lib/gcc/arm-none-eabi/6.3.1/../../../../arm-none-eabi/lib/thumb/v7e-m/fpv4-sp/hard/crt0.o (exit)
/usr/bin/../lib/gcc/arm-none-eabi/6.3.1/../../../../arm-none-eabi/lib/thumb/v7e-m/fpv4-sp/hard/libg.a(lib_a-impure.o)
                              /usr/bin/../lib/gcc/arm-none-eabi/6.3.1/../../../../arm-none-eabi/lib/thumb/v7e-m/fpv4-sp/hard/libg.a(lib_a-exit.o) (_global_impure_ptr)
/usr/bin/../lib/gcc/arm-none-eabi/6.3.1/../../../../arm-none-eabi/lib/thumb/v7e-m/fpv4-sp/hard/libg.a(lib_a-init.o)
                              /usr/bin/../lib/gcc/arm-none-eabi/6.3.1/../../../../arm-none-eabi/lib/thumb/v7e-m/fpv4-sp/hard/crt0.o (__libc_init_array)
/usr/bin/../lib/gcc/arm-none-eabi/6.3.1/../../../../arm-none-eabi/lib/thumb/v7e-m/fpv4-sp/hard/libg.a(lib_a-memset.o)
                              /usr/bin/../lib/gcc/arm-none-eabi/6.3.1/../../../../arm-none-eabi/lib/thumb/v7e-m/fpv4-sp/hard/crt0.o (memset)
/usr/bin/../lib/gcc/arm-none-eabi/6.3.1/../../../../arm-none-eabi/lib/thumb/v7e-m/fpv4-sp/hard/libg.a(lib_a-__call_atexit.o)
                              /usr/bin/../lib/gcc/arm-none-eabi/6.3.1/../../../../arm-none-eabi/lib/thumb/v7e-m/fpv4-sp/hard/libg.a(lib_a-exit.o) (__call_exitprocs)
/usr/bin/../lib/gcc/arm-none-eabi/6.3.1/../../../../arm-none-eabi/lib/thumb/v7e-m/fpv4-sp/hard/libg.a(lib_a-atexit.o)
                              /usr/bin/../lib/gcc/arm-none-eabi/6.3.1/../../../../arm-none-eabi/lib/thumb/v7e-m/fpv4-sp/hard/libg.a(lib_a-__call_atexit.o) (atexit)
/usr/bin/../lib/gcc/arm-none-eabi/6.3.1/../../../../arm-none-eabi/lib/thumb/v7e-m/fpv4-sp/hard/libg.a(lib_a-fini.o)
                              /usr/bin/../lib/gcc/arm-none-eabi/6.3.1/../../../../arm-none-eabi/lib/thumb/v7e-m/fpv4-sp/hard/libg.a(lib_a-__call_atexit.o) (__libc_fini_array)
/usr/bin/../lib/gcc/arm-none-eabi/6.3.1/../../../../arm-none-eabi/lib/thumb/v7e-m/fpv4-sp/hard/libg.a(lib_a-lock.o)
                              /usr/bin/../lib/gcc/arm-none-eabi/6.3.1/../../../../arm-none-eabi/lib/thumb/v7e-m/fpv4-sp/hard/libg.a(lib_a-__call_atexit.o) (__retarget_lock_acquire_recursive)
/usr/bin/../lib/gcc/arm-none-eabi/6.3.1/../../../../arm-none-eabi/lib/thumb/v7e-m/fpv4-sp/hard/libg.a(lib_a-__atexit.o)
                              /usr/bin/../lib/gcc/arm-none-eabi/6.3.1/../../../../arm-none-eabi/lib/thumb/v7e-m/fpv4-sp/hard/libg.a(lib_a-atexit.o) (__register_exitproc)
/usr/bin/../lib/gcc/arm-none-eabi/6.3.1/../../../../arm-none-eabi/lib/thumb/v7e-m/fpv4-sp/hard/libnosys.a(_exit.o)
                              /usr/bin/../lib/gcc/arm-none-eabi/6.3.1/../../../../arm-none-eabi/lib/thumb/v7e-m/fpv4-sp/hard/libg.a(lib_a-exit.o) (_exit)

Allocating common symbols
Common symbol       size              file

__lock___atexit_recursive_mutex
                    0x1               /usr/bin/../lib/gcc/arm-none-eabi/6.3.1/../../../../arm-none-eabi/lib/thumb/v7e-m/fpv4-sp/hard/libg.a(lib_a-lock.o)
__lock___arc4random_mutex
                    0x1               /usr/bin/../lib/gcc/arm-none-eabi/6.3.1/../../../../arm-none-eabi/lib/thumb/v7e-m/fpv4-sp/hard/libg.a(lib_a-lock.o)
__lock___env_recursive_mutex
                    0x1               /usr/bin/../lib/gcc/arm-none-eabi/6.3.1/../../../../arm-none-eabi/lib/thumb/v7e-m/fpv4-sp/hard/libg.a(lib_a-lock.o)
__lock___sinit_recursive_mutex
                    0x1               /usr/bin/../lib/gcc/arm-none-eabi/6.3.1/../../../../arm-none-eabi/lib/thumb/v7e-m/fpv4-sp/hard/libg.a(lib_a-lock.o)
__lock___malloc_recursive_mutex
                    0x1               /usr/bin/../lib/gcc/arm-none-eabi/6.3.1/../../../../arm-none-eabi/lib/thumb/v7e-m/fpv4-sp/hard/libg.a(lib_a-lock.o)
__lock___at_quick_exit_mutex
                    0x1               /usr/bin/../lib/gcc/arm-none-eabi/6.3.1/../../../../arm-none-eabi/lib/thumb/v7e-m/fpv4-sp/hard/libg.a(lib_a-lock.o)
__lock___dd_hash_mutex
                    0x1               /usr/bin/../lib/gcc/arm-none-eabi/6.3.1/../../../../arm-none-eabi/lib/thumb/v7e-m/fpv4-sp/hard/libg.a(lib_a-lock.o)
__lock___tz_mutex   0x1               /usr/bin/../lib/gcc/arm-none-eabi/6.3.1/../../../../arm-none-eabi/lib/thumb/v7e-m/fpv4-sp/hard/libg.a(lib_a-lock.o)
__lock___sfp_recursive_mutex
                    0x1               /usr/bin/../lib/gcc/arm-none-eabi/6.3.1/../../../../arm-none-eabi/lib/thumb/v7e-m/fpv4-sp/hard/libg.a(lib_a-lock.o)

Memory Configuration

Name             Origin             Length             Attributes
rom              0x0000000008000000 0x0000000000100000 xr
ram              0x0000000020000000 0x0000000000020000 xrw
ccm              0x0000000001000000 0x0000000000010000 xrw
*default*        0x0000000000000000 0xffffffffffffffff

Linker script and memory map

LOAD /usr/bin/../lib/gcc/arm-none-eabi/6.3.1/thumb/v7e-m/fpv4-sp/hard/crti.o
LOAD /usr/bin/../lib/gcc/arm-none-eabi/6.3.1/thumb/v7e-m/fpv4-sp/hard/crtbegin.o
LOAD /usr/bin/../lib/gcc/arm-none-eabi/6.3.1/../../../../arm-none-eabi/lib/thumb/v7e-m/fpv4-sp/hard/crt0.o
LOAD /tmp/ccgnh6wp.o
LOAD /tmp/ccxaYpkH.o
LOAD /tmp/ccAKmBiZ.o
LOAD /tmp/ccduIBrh.o
LOAD /tmp/cck2boLz.o
LOAD /tmp/ccOKgbhS.o
LOAD /tmp/cc6VFDZa.o
LOAD /tmp/ccoC2zSt.o
LOAD /tmp/cc5zuYMM.o
LOAD /tmp/ccS8uRS5.o
LOAD /tmp/ccYXHpap.o
LOAD /tmp/ccCurHDI.o
LOAD /tmp/cccSrSi2.o
LOAD /tmp/ccpSsggm.o
LOAD /tmp/cc0459qG.o
LOAD /tmp/cc4jDQY0.o
LOAD /tmp/cc0o0QOl.o
START GROUP
LOAD /usr/bin/../lib/gcc/arm-none-eabi/6.3.1/thumb/v7e-m/fpv4-sp/hard/libgcc.a
LOAD /usr/bin/../lib/gcc/arm-none-eabi/6.3.1/../../../../arm-none-eabi/lib/thumb/v7e-m/fpv4-sp/hard/libg.a
LOAD /usr/bin/../lib/gcc/arm-none-eabi/6.3.1/../../../../arm-none-eabi/lib/thumb/v7e-m/fpv4-sp/hard/libc.a
END GROUP
START GROUP
LOAD /usr/bin/../lib/gcc/arm-none-eabi/6.3.1/thumb/v7e-m/fpv4-sp/hard/libgcc.a
LOAD /usr/bin/../lib/gcc/arm-none-eabi/6.3.1/../../../../arm-none-eabi/lib/thumb/v7e-m/fpv4-sp/hard/libc.a
LOAD /usr/bin/../lib/gcc/arm-none-eabi/6.3.1/../../../../arm-none-eabi/lib/thumb/v7e-m/fpv4-sp/hard/libnosys.a
END GROUP
LOAD /usr/bin/../lib/gcc/arm-none-eabi/6.3.1/thumb/v7e-m/fpv4-sp/hard/crtend.o
LOAD /usr/bin/../lib/gcc/arm-none-eabi/6.3.1/thumb/v7e-m/fpv4-sp/hard/crtn.o

.isr_vector     0x0000000008000000      0x188
 *(.isr_vector)
 .isr_vector    0x0000000008000000      0x188 /tmp/cc5zuYMM.o
                0x0000000008000000                g_pfnVectors
                0x0000000008000188                . = ALIGN (0x4)

.eh_frame       0x0000000008000188        0x4
 .eh_frame      0x0000000008000188        0x0 /usr/bin/../lib/gcc/arm-none-eabi/6.3.1/thumb/v7e-m/fpv4-sp/hard/crtbegin.o
 .eh_frame      0x0000000008000188        0x4 /usr/bin/../lib/gcc/arm-none-eabi/6.3.1/thumb/v7e-m/fpv4-sp/hard/crtend.o

.ARM.extab      0x000000000800018c        0x0
 .ARM.extab     0x000000000800018c        0x0 /usr/bin/../lib/gcc/arm-none-eabi/6.3.1/../../../../arm-none-eabi/lib/thumb/v7e-m/fpv4-sp/hard/crt0.o

.ARM.exidx      0x000000000800018c        0x8
 .ARM.exidx     0x000000000800018c        0x8 /usr/bin/../lib/gcc/arm-none-eabi/6.3.1/../../../../arm-none-eabi/lib/thumb/v7e-m/fpv4-sp/hard/crt0.o

.text           0x0000000008000194     0x4b1c
 *(.vectors)
 *(.text*)
 .text          0x0000000008000194        0x0 /usr/bin/../lib/gcc/arm-none-eabi/6.3.1/thumb/v7e-m/fpv4-sp/hard/crti.o
 .text          0x0000000008000194       0x6c /usr/bin/../lib/gcc/arm-none-eabi/6.3.1/thumb/v7e-m/fpv4-sp/hard/crtbegin.o
 .text          0x0000000008000200       0x74 /usr/bin/../lib/gcc/arm-none-eabi/6.3.1/../../../../arm-none-eabi/lib/thumb/v7e-m/fpv4-sp/hard/crt0.o
                0x0000000008000200                _mainCRTStartup
                0x0000000008000200                _start
 .text          0x0000000008000274      0x2a4 /tmp/ccgnh6wp.o
                0x0000000008000274                motor_start
                0x0000000008000294                motor_stop
                0x00000000080002b4                tim_pwm_init
                0x00000000080003b0                motor_init
                0x0000000008000420                motor_set_pwm
                0x0000000008000474                motor_commutate
 .text          0x0000000008000518      0x15c /tmp/ccxaYpkH.o
                0x0000000008000518                uart_init
                0x00000000080005dc                USART1_IRQHandler
 .text          0x0000000008000674       0xdc /tmp/ccAKmBiZ.o
                0x000000000800070c                main
 .text          0x0000000008000750       0x3c /tmp/ccduIBrh.o
                0x0000000008000750                delay
 .text          0x000000000800078c       0x8c /tmp/cck2boLz.o
                0x000000000800078c                NMI_Handler
                0x000000000800079a                HardFault_Handler
                0x00000000080007a0                MemManage_Handler
                0x00000000080007a6                BusFault_Handler
                0x00000000080007ac                UsageFault_Handler
                0x00000000080007b2                SVC_Handler
                0x00000000080007c0                DebugMon_Handler
                0x00000000080007ce                PendSV_Handler
                0x00000000080007dc                SysTick_Handler
                0x0000000008000800                get_time
 .text          0x0000000008000818      0x13c /tmp/ccOKgbhS.o
                0x0000000008000818                hall_sensor_init
                0x00000000080008e8                EXTI15_10_IRQHandler
 .text          0x0000000008000954      0x25c /tmp/cc6VFDZa.o
                0x0000000008000954                SystemInit
                0x00000000080009c0                SystemCoreClockUpdate
 .text          0x0000000008000bb0       0x3c /tmp/ccoC2zSt.o
                0x0000000008000bb0                board_led_init
 .text          0x0000000008000bec       0x14 /tmp/cc5zuYMM.o
 .text.Reset_Handler
                0x0000000008000c00       0x48 /tmp/cc5zuYMM.o
                0x0000000008000c00                Reset_Handler
 .text.Default_Handler
                0x0000000008000c48        0x2 /tmp/cc5zuYMM.o
                0x0000000008000c48                RTC_Alarm_IRQHandler
                0x0000000008000c48                HASH_RNG_IRQHandler
                0x0000000008000c48                EXTI2_IRQHandler
                0x0000000008000c48                TIM8_CC_IRQHandler
                0x0000000008000c48                TIM1_CC_IRQHandler
                0x0000000008000c48                DMA2_Stream5_IRQHandler
                0x0000000008000c48                DMA1_Stream5_IRQHandler
                0x0000000008000c48                PVD_IRQHandler
                0x0000000008000c48                SDIO_IRQHandler
                0x0000000008000c48                TAMP_STAMP_IRQHandler
                0x0000000008000c48                CAN2_RX1_IRQHandler
                0x0000000008000c48                EXTI3_IRQHandler
                0x0000000008000c48                TIM8_TRG_COM_TIM14_IRQHandler
                0x0000000008000c48                TIM1_UP_TIM10_IRQHandler
                0x0000000008000c48                TIM8_UP_TIM13_IRQHandler
                0x0000000008000c48                I2C3_ER_IRQHandler
                0x0000000008000c48                EXTI0_IRQHandler
                0x0000000008000c48                I2C2_EV_IRQHandler
                0x0000000008000c48                DMA1_Stream2_IRQHandler
                0x0000000008000c48                CAN1_RX0_IRQHandler
                0x0000000008000c48                FPU_IRQHandler
                0x0000000008000c48                OTG_HS_WKUP_IRQHandler
                0x0000000008000c48                CAN2_SCE_IRQHandler
                0x0000000008000c48                DMA2_Stream2_IRQHandler
                0x0000000008000c48                SPI1_IRQHandler
                0x0000000008000c48                TIM6_DAC_IRQHandler
                0x0000000008000c48                TIM1_BRK_TIM9_IRQHandler
                0x0000000008000c48                DCMI_IRQHandler
                0x0000000008000c48                CAN2_RX0_IRQHandler
                0x0000000008000c48                DMA2_Stream3_IRQHandler
                0x0000000008000c48                USART6_IRQHandler
                0x0000000008000c48                USART3_IRQHandler
                0x0000000008000c48                CRYP_IRQHandler
                0x0000000008000c48                CAN1_RX1_IRQHandler
                0x0000000008000c48                UART5_IRQHandler
                0x0000000008000c48                DMA2_Stream0_IRQHandler
                0x0000000008000c48                TIM4_IRQHandler
                0x0000000008000c48                I2C1_EV_IRQHandler
                0x0000000008000c48                DMA1_Stream6_IRQHandler
                0x0000000008000c48                DMA1_Stream1_IRQHandler
                0x0000000008000c48                UART4_IRQHandler
                0x0000000008000c48                TIM3_IRQHandler
                0x0000000008000c48                RCC_IRQHandler
                0x0000000008000c48                TIM8_BRK_TIM12_IRQHandler
                0x0000000008000c48                Default_Handler
                0x0000000008000c48                ADC_IRQHandler
                0x0000000008000c48                DMA1_Stream7_IRQHandler
                0x0000000008000c48                TIM7_IRQHandler
                0x0000000008000c48                CAN2_TX_IRQHandler
                0x0000000008000c48                TIM5_IRQHandler
                0x0000000008000c48                DMA2_Stream7_IRQHandler
                0x0000000008000c48                I2C3_EV_IRQHandler
                0x0000000008000c48                EXTI9_5_IRQHandler
                0x0000000008000c48                RTC_WKUP_IRQHandler
                0x0000000008000c48                ETH_WKUP_IRQHandler
                0x0000000008000c48                SPI2_IRQHandler
                0x0000000008000c48                OTG_HS_EP1_IN_IRQHandler
                0x0000000008000c48                DMA1_Stream0_IRQHandler
                0x0000000008000c48                CAN1_TX_IRQHandler
                0x0000000008000c48                EXTI4_IRQHandler
                0x0000000008000c48                FSMC_IRQHandler
                0x0000000008000c48                ETH_IRQHandler
                0x0000000008000c48                OTG_HS_EP1_OUT_IRQHandler
                0x0000000008000c48                WWDG_IRQHandler
                0x0000000008000c48                TIM2_IRQHandler
                0x0000000008000c48                OTG_FS_WKUP_IRQHandler
                0x0000000008000c48                TIM1_TRG_COM_TIM11_IRQHandler
                0x0000000008000c48                OTG_HS_IRQHandler
                0x0000000008000c48                EXTI1_IRQHandler
                0x0000000008000c48                USART2_IRQHandler
                0x0000000008000c48                I2C2_ER_IRQHandler
                0x0000000008000c48                DMA2_Stream1_IRQHandler
                0x0000000008000c48                CAN1_SCE_IRQHandler
                0x0000000008000c48                FLASH_IRQHandler
                0x0000000008000c48                DMA2_Stream4_IRQHandler
                0x0000000008000c48                OTG_FS_IRQHandler
                0x0000000008000c48                SPI3_IRQHandler
                0x0000000008000c48                DMA1_Stream4_IRQHandler
                0x0000000008000c48                I2C1_ER_IRQHandler
                0x0000000008000c48                DMA2_Stream6_IRQHandler
                0x0000000008000c48                DMA1_Stream3_IRQHandler
 *fill*         0x0000000008000c4a        0x2 
 .text          0x0000000008000c4c      0x194 /tmp/ccS8uRS5.o
                0x0000000008000c4c                NVIC_PriorityGroupConfig
                0x0000000008000c74                NVIC_Init
                0x0000000008000d38                NVIC_SetVectorTable
                0x0000000008000d64                NVIC_SystemLPConfig
                0x0000000008000da8                SysTick_CLKSourceConfig
 .text          0x0000000008000de0       0xf4 /tmp/ccYXHpap.o
                0x0000000008000de0                DBGMCU_GetREVID
                0x0000000008000df8                DBGMCU_GetDEVID
                0x0000000008000e14                DBGMCU_Config
                0x0000000008000e54                DBGMCU_APB1PeriphConfig
                0x0000000008000e94                DBGMCU_APB2PeriphConfig
 .text          0x0000000008000ed4      0x210 /tmp/ccCurHDI.o
                0x0000000008000ed4                EXTI_DeInit
                0x0000000008000f08                EXTI_Init
                0x0000000008000fec                EXTI_StructInit
                0x0000000008001018                EXTI_GenerateSWInterrupt
                0x000000000800103c                EXTI_GetFlagStatus
                0x0000000008001070                EXTI_ClearFlag
                0x0000000008001090                EXTI_GetITStatus
                0x00000000080010c4                EXTI_ClearITPendingBit
 .text          0x00000000080010e4      0x4d4 /tmp/cccSrSi2.o
                0x00000000080010e4                GPIO_DeInit
                0x0000000008001248                GPIO_Init
                0x0000000008001364                GPIO_StructInit
                0x0000000008001398                GPIO_PinLockConfig
                0x00000000080013dc                GPIO_ReadInputDataBit
                0x0000000008001410                GPIO_ReadInputData
                0x000000000800142a                GPIO_ReadOutputDataBit
                0x000000000800145e                GPIO_ReadOutputData
                0x0000000008001478                GPIO_SetBits
                0x0000000008001496                GPIO_ResetBits
                0x00000000080014b4                GPIO_WriteBit
                0x00000000080014e4                GPIO_Write
                0x0000000008001502                GPIO_ToggleBits
                0x0000000008001526                GPIO_PinAFConfig
 .text          0x00000000080015b8      0xce0 /tmp/ccpSsggm.o
                0x00000000080015b8                RCC_DeInit
                0x0000000008001628                RCC_HSEConfig
                0x0000000008001650                RCC_WaitForHSEStartUp
                0x00000000080016a0                RCC_AdjustHSICalibrationValue
                0x00000000080016dc                RCC_HSICmd
                0x00000000080016fc                RCC_LSEConfig
                0x0000000008001740                RCC_LSICmd
                0x0000000008001760                RCC_PLLConfig
                0x00000000080017a0                RCC_PLLCmd
                0x00000000080017c0                RCC_PLLI2SConfig
                0x00000000080017ec                RCC_PLLI2SCmd
                0x000000000800180c                RCC_PLLSAIConfig
                0x0000000008001840                RCC_PLLSAICmd
                0x0000000008001860                RCC_ClockSecuritySystemCmd
                0x0000000008001880                RCC_MCO1Config
                0x00000000080018c0                RCC_MCO2Config
                0x0000000008001900                RCC_SYSCLKConfig
                0x0000000008001938                RCC_GetSYSCLKSource
                0x0000000008001958                RCC_HCLKConfig
                0x0000000008001990                RCC_PCLK1Config
                0x00000000080019c8                RCC_PCLK2Config
                0x0000000008001a04                RCC_GetClocksFreq
                0x0000000008001b54                RCC_RTCCLKConfig
                0x0000000008001bb0                RCC_RTCCLKCmd
                0x0000000008001bd0                RCC_BackupResetCmd
                0x0000000008001bf0                RCC_I2SCLKConfig
                0x0000000008001c10                RCC_SAIBlockACLKConfig
                0x0000000008001c4c                RCC_SAIBlockBCLKConfig
                0x0000000008001c88                RCC_SAIPLLI2SClkDivConfig
                0x0000000008001cc8                RCC_SAIPLLSAIClkDivConfig
                0x0000000008001d08                RCC_LTDCCLKDivConfig
                0x0000000008001d44                RCC_TIMCLKPresConfig
                0x0000000008001d64                RCC_AHB1PeriphClockCmd
                0x0000000008001da4                RCC_AHB2PeriphClockCmd
                0x0000000008001de4                RCC_AHB3PeriphClockCmd
                0x0000000008001e24                RCC_APB1PeriphClockCmd
                0x0000000008001e64                RCC_APB2PeriphClockCmd
                0x0000000008001ea4                RCC_AHB1PeriphResetCmd
                0x0000000008001ee4                RCC_AHB2PeriphResetCmd
                0x0000000008001f24                RCC_AHB3PeriphResetCmd
                0x0000000008001f64                RCC_APB1PeriphResetCmd
                0x0000000008001fa4                RCC_APB2PeriphResetCmd
                0x0000000008001fe4                RCC_AHB1PeriphClockLPModeCmd
                0x0000000008002024                RCC_AHB2PeriphClockLPModeCmd
                0x0000000008002064                RCC_AHB3PeriphClockLPModeCmd
                0x00000000080020a4                RCC_APB1PeriphClockLPModeCmd
                0x00000000080020e4                RCC_APB2PeriphClockLPModeCmd
                0x0000000008002124                RCC_LSEModeConfig
                0x0000000008002160                RCC_ITConfig
                0x00000000080021ac                RCC_GetFlagStatus
                0x0000000008002220                RCC_ClearFlag
                0x0000000008002240                RCC_GetITStatus
                0x0000000008002278                RCC_ClearITPendingBit
 .text          0x0000000008002298      0x154 /tmp/cc0459qG.o
                0x0000000008002298                SYSCFG_DeInit
                0x00000000080022b4                SYSCFG_MemoryRemapConfig
                0x00000000080022d4                SYSCFG_MemorySwappingBank
                0x00000000080022f4                SYSCFG_EXTILineConfig
                0x0000000008002378                SYSCFG_ETH_MediaInterfaceConfig
                0x0000000008002398                SYSCFG_CompensationCellCmd
                0x00000000080023b8                SYSCFG_GetCompensationCellStatus
 .text          0x00000000080023ec     0x1c18 /tmp/cc4jDQY0.o
                0x00000000080023ec                TIM_DeInit
                0x00000000080025ac                TIM_TimeBaseInit
                0x0000000008002684                TIM_TimeBaseStructInit
                0x00000000080026b8                TIM_PrescalerConfig
                0x00000000080026e0                TIM_CounterModeConfig
                0x0000000008002718                TIM_SetCounter
                0x0000000008002734                TIM_SetAutoreload
                0x0000000008002750                TIM_GetCounter
                0x0000000008002768                TIM_GetPrescaler
                0x0000000008002782                TIM_UpdateDisableConfig
                0x00000000080027c2                TIM_UpdateRequestConfig
                0x0000000008002802                TIM_ARRPreloadConfig
                0x0000000008002842                TIM_SelectOnePulseMode
                0x000000000800287a                TIM_SetClockDivision
                0x00000000080028b2                TIM_Cmd
                0x00000000080028f2                TIM_OC1Init
                0x00000000080029e8                TIM_OC2Init
                0x0000000008002af8                TIM_OC3Init
                0x0000000008002c04                TIM_OC4Init
                0x0000000008002cd4                TIM_OCStructInit
                0x0000000008002d18                TIM_SelectOCxM
                0x0000000008002dca                TIM_SetCompare1
                0x0000000008002de6                TIM_SetCompare2
                0x0000000008002e02                TIM_SetCompare3
                0x0000000008002e1e                TIM_SetCompare4
                0x0000000008002e3a                TIM_ForcedOC1Config
                0x0000000008002e72                TIM_ForcedOC2Config
                0x0000000008002eae                TIM_ForcedOC3Config
                0x0000000008002ee6                TIM_ForcedOC4Config
                0x0000000008002f22                TIM_OC1PreloadConfig
                0x0000000008002f5a                TIM_OC2PreloadConfig
                0x0000000008002f96                TIM_OC3PreloadConfig
                0x0000000008002fce                TIM_OC4PreloadConfig
                0x000000000800300a                TIM_OC1FastConfig
                0x0000000008003042                TIM_OC2FastConfig
                0x000000000800307e                TIM_OC3FastConfig
                0x00000000080030b6                TIM_OC4FastConfig
                0x00000000080030f2                TIM_ClearOC1Ref
                0x000000000800312a                TIM_ClearOC2Ref
                0x0000000008003166                TIM_ClearOC3Ref
                0x000000000800319e                TIM_ClearOC4Ref
                0x00000000080031da                TIM_OC1PolarityConfig
                0x0000000008003212                TIM_OC1NPolarityConfig
                0x000000000800324a                TIM_OC2PolarityConfig
                0x0000000008003286                TIM_OC2NPolarityConfig
                0x00000000080032c2                TIM_OC3PolarityConfig
                0x00000000080032fe                TIM_OC3NPolarityConfig
                0x000000000800333a                TIM_OC4PolarityConfig
                0x0000000008003376                TIM_CCxCmd
                0x00000000080033cc                TIM_CCxNCmd
                0x0000000008003422                TIM_ICInit
                0x00000000080034ca                TIM_ICStructInit
                0x00000000080034fc                TIM_PWMIConfig
                0x00000000080035b4                TIM_GetCapture1
                0x00000000080035cc                TIM_GetCapture2
                0x00000000080035e4                TIM_GetCapture3
                0x00000000080035fc                TIM_GetCapture4
                0x0000000008003614                TIM_SetIC1Prescaler
                0x000000000800364c                TIM_SetIC2Prescaler
                0x0000000008003688                TIM_SetIC3Prescaler
                0x00000000080036c0                TIM_SetIC4Prescaler
                0x00000000080036fc                TIM_BDTRConfig
                0x000000000800374c                TIM_BDTRStructInit
                0x000000000800378a                TIM_CtrlPWMOutputs
                0x00000000080037d6                TIM_SelectCOM
                0x0000000008003816                TIM_CCPreloadControl
                0x0000000008003856                TIM_ITConfig
                0x000000000800389e                TIM_GenerateEvent
                0x00000000080038bc                TIM_GetFlagStatus
                0x00000000080038f4                TIM_ClearFlag
                0x0000000008003916                TIM_GetITStatus
                0x000000000800396a                TIM_ClearITPendingBit
                0x000000000800398c                TIM_DMAConfig
                0x00000000080039b6                TIM_DMACmd
                0x00000000080039fe                TIM_SelectCCDMA
                0x0000000008003a3e                TIM_InternalClockConfig
                0x0000000008003a62                TIM_ITRxExternalClockConfig
                0x0000000008003a90                TIM_TIxExternalClockConfig
                0x0000000008003aec                TIM_ETRClockMode1Config
                0x0000000008003b4a                TIM_ETRClockMode2Config
                0x0000000008003b88                TIM_SelectInputTrigger
                0x0000000008003bc0                TIM_SelectOutputTrigger
                0x0000000008003bf8                TIM_SelectSlaveMode
                0x0000000008003c30                TIM_SelectMasterSlaveMode
                0x0000000008003c68                TIM_ETRConfig
                0x0000000008003cbc                TIM_EncoderInterfaceConfig
                0x0000000008003d54                TIM_SelectHallSensor
                0x0000000008003d94                TIM_RemapConfig
 .text          0x0000000008004004      0x970 /tmp/cc0o0QOl.o
                0x0000000008004004                USART_DeInit
                0x000000000800411c                USART_Init
                0x0000000008004290                USART_StructInit
                0x00000000080042ca                USART_ClockInit
                0x0000000008004320                USART_ClockStructInit
                0x000000000800434c                USART_Cmd
                0x000000000800438c                USART_SetPrescaler
                0x00000000080043c6                USART_OverSampling8Cmd
                0x000000000800440a                USART_OneBitMethodCmd
                0x000000000800444a                USART_SendData
                0x000000000800446e                USART_ReceiveData
                0x000000000800448e                USART_SetAddress
                0x00000000080044c8                USART_ReceiverWakeUpCmd
                0x0000000008004508                USART_WakeUpConfig
                0x0000000008004540                USART_LINBreakDetectLengthConfig
                0x0000000008004578                USART_LINCmd
                0x00000000080045b8                USART_SendBreak
                0x00000000080045dc                USART_HalfDuplexCmd
                0x000000000800461c                USART_SetGuardTime
                0x0000000008004658                USART_SmartCardCmd
                0x0000000008004698                USART_SmartCardNACKCmd
                0x00000000080046d8                USART_IrDAConfig
                0x0000000008004710                USART_IrDACmd
                0x0000000008004750                USART_DMACmd
                0x0000000008004798                USART_ITConfig
                0x0000000008004828                USART_GetFlagStatus
                0x0000000008004860                USART_ClearFlag
                0x0000000008004882                USART_GetITStatus
                0x0000000008004938                USART_ClearITPendingBit
 .text          0x0000000008004974        0x0 /usr/bin/../lib/gcc/arm-none-eabi/6.3.1/../../../../arm-none-eabi/lib/thumb/v7e-m/fpv4-sp/hard/libg.a(lib_a-exit.o)
 .text.exit     0x0000000008004974       0x20 /usr/bin/../lib/gcc/arm-none-eabi/6.3.1/../../../../arm-none-eabi/lib/thumb/v7e-m/fpv4-sp/hard/libg.a(lib_a-exit.o)
                0x0000000008004974                exit
 .text          0x0000000008004994        0x0 /usr/bin/../lib/gcc/arm-none-eabi/6.3.1/../../../../arm-none-eabi/lib/thumb/v7e-m/fpv4-sp/hard/libg.a(lib_a-impure.o)
 .text          0x0000000008004994        0x0 /usr/bin/../lib/gcc/arm-none-eabi/6.3.1/../../../../arm-none-eabi/lib/thumb/v7e-m/fpv4-sp/hard/libg.a(lib_a-init.o)
 .text.__libc_init_array
                0x0000000008004994       0x50 /usr/bin/../lib/gcc/arm-none-eabi/6.3.1/../../../../arm-none-eabi/lib/thumb/v7e-m/fpv4-sp/hard/libg.a(lib_a-init.o)
                0x0000000008004994                __libc_init_array
 .text          0x00000000080049e4        0x0 /usr/bin/../lib/gcc/arm-none-eabi/6.3.1/../../../../arm-none-eabi/lib/thumb/v7e-m/fpv4-sp/hard/libg.a(lib_a-memset.o)
 .text.memset   0x00000000080049e4       0x9c /usr/bin/../lib/gcc/arm-none-eabi/6.3.1/../../../../arm-none-eabi/lib/thumb/v7e-m/fpv4-sp/hard/libg.a(lib_a-memset.o)
                0x00000000080049e4                memset
 .text          0x0000000008004a80        0x0 /usr/bin/../lib/gcc/arm-none-eabi/6.3.1/../../../../arm-none-eabi/lib/thumb/v7e-m/fpv4-sp/hard/libg.a(lib_a-__call_atexit.o)
 .text.startup.register_fini
                0x0000000008004a80       0x14 /usr/bin/../lib/gcc/arm-none-eabi/6.3.1/../../../../arm-none-eabi/lib/thumb/v7e-m/fpv4-sp/hard/libg.a(lib_a-__call_atexit.o)
 .text.__call_exitprocs
                0x0000000008004a94       0xe8 /usr/bin/../lib/gcc/arm-none-eabi/6.3.1/../../../../arm-none-eabi/lib/thumb/v7e-m/fpv4-sp/hard/libg.a(lib_a-__call_atexit.o)
                0x0000000008004a94                __call_exitprocs
 .text          0x0000000008004b7c        0x0 /usr/bin/../lib/gcc/arm-none-eabi/6.3.1/../../../../arm-none-eabi/lib/thumb/v7e-m/fpv4-sp/hard/libg.a(lib_a-atexit.o)
 .text.atexit   0x0000000008004b7c        0xc /usr/bin/../lib/gcc/arm-none-eabi/6.3.1/../../../../arm-none-eabi/lib/thumb/v7e-m/fpv4-sp/hard/libg.a(lib_a-atexit.o)
                0x0000000008004b7c                atexit
 .text          0x0000000008004b88        0x0 /usr/bin/../lib/gcc/arm-none-eabi/6.3.1/../../../../arm-none-eabi/lib/thumb/v7e-m/fpv4-sp/hard/libg.a(lib_a-fini.o)
 .text.__libc_fini_array
                0x0000000008004b88       0x34 /usr/bin/../lib/gcc/arm-none-eabi/6.3.1/../../../../arm-none-eabi/lib/thumb/v7e-m/fpv4-sp/hard/libg.a(lib_a-fini.o)
                0x0000000008004b88                __libc_fini_array
 .text          0x0000000008004bbc        0x0 /usr/bin/../lib/gcc/arm-none-eabi/6.3.1/../../../../arm-none-eabi/lib/thumb/v7e-m/fpv4-sp/hard/libg.a(lib_a-lock.o)
 .text.__retarget_lock_init
                0x0000000008004bbc        0x4 /usr/bin/../lib/gcc/arm-none-eabi/6.3.1/../../../../arm-none-eabi/lib/thumb/v7e-m/fpv4-sp/hard/libg.a(lib_a-lock.o)
                0x0000000008004bbc                __retarget_lock_init
 .text.__retarget_lock_init_recursive
                0x0000000008004bc0        0x4 /usr/bin/../lib/gcc/arm-none-eabi/6.3.1/../../../../arm-none-eabi/lib/thumb/v7e-m/fpv4-sp/hard/libg.a(lib_a-lock.o)
                0x0000000008004bc0                __retarget_lock_init_recursive
 .text.__retarget_lock_close
                0x0000000008004bc4        0x4 /usr/bin/../lib/gcc/arm-none-eabi/6.3.1/../../../../arm-none-eabi/lib/thumb/v7e-m/fpv4-sp/hard/libg.a(lib_a-lock.o)
                0x0000000008004bc4                __retarget_lock_close
 .text.__retarget_lock_close_recursive
                0x0000000008004bc8        0x4 /usr/bin/../lib/gcc/arm-none-eabi/6.3.1/../../../../arm-none-eabi/lib/thumb/v7e-m/fpv4-sp/hard/libg.a(lib_a-lock.o)
                0x0000000008004bc8                __retarget_lock_close_recursive
 .text.__retarget_lock_acquire
                0x0000000008004bcc        0x4 /usr/bin/../lib/gcc/arm-none-eabi/6.3.1/../../../../arm-none-eabi/lib/thumb/v7e-m/fpv4-sp/hard/libg.a(lib_a-lock.o)
                0x0000000008004bcc                __retarget_lock_acquire
 .text.__retarget_lock_acquire_recursive
                0x0000000008004bd0        0x4 /usr/bin/../lib/gcc/arm-none-eabi/6.3.1/../../../../arm-none-eabi/lib/thumb/v7e-m/fpv4-sp/hard/libg.a(lib_a-lock.o)
                0x0000000008004bd0                __retarget_lock_acquire_recursive
 .text.__retarget_lock_try_acquire
                0x0000000008004bd4        0x4 /usr/bin/../lib/gcc/arm-none-eabi/6.3.1/../../../../arm-none-eabi/lib/thumb/v7e-m/fpv4-sp/hard/libg.a(lib_a-lock.o)
                0x0000000008004bd4                __retarget_lock_try_acquire
 .text.__retarget_lock_try_acquire_recursive
                0x0000000008004bd8        0x4 /usr/bin/../lib/gcc/arm-none-eabi/6.3.1/../../../../arm-none-eabi/lib/thumb/v7e-m/fpv4-sp/hard/libg.a(lib_a-lock.o)
                0x0000000008004bd8                __retarget_lock_try_acquire_recursive
 .text.__retarget_lock_release
                0x0000000008004bdc        0x4 /usr/bin/../lib/gcc/arm-none-eabi/6.3.1/../../../../arm-none-eabi/lib/thumb/v7e-m/fpv4-sp/hard/libg.a(lib_a-lock.o)
                0x0000000008004bdc                __retarget_lock_release
 .text.__retarget_lock_release_recursive
                0x0000000008004be0        0x4 /usr/bin/../lib/gcc/arm-none-eabi/6.3.1/../../../../arm-none-eabi/lib/thumb/v7e-m/fpv4-sp/hard/libg.a(lib_a-lock.o)
                0x0000000008004be0                __retarget_lock_release_recursive
 .text          0x0000000008004be4        0x0 /usr/bin/../lib/gcc/arm-none-eabi/6.3.1/../../../../arm-none-eabi/lib/thumb/v7e-m/fpv4-sp/hard/libg.a(lib_a-__atexit.o)
 .text.__register_exitproc
                0x0000000008004be4       0xc4 /usr/bin/../lib/gcc/arm-none-eabi/6.3.1/../../../../arm-none-eabi/lib/thumb/v7e-m/fpv4-sp/hard/libg.a(lib_a-__atexit.o)
                0x0000000008004be4                __register_exitproc
 .text          0x0000000008004ca8        0x0 /usr/bin/../lib/gcc/arm-none-eabi/6.3.1/../../../../arm-none-eabi/lib/thumb/v7e-m/fpv4-sp/hard/libnosys.a(_exit.o)
 .text._exit    0x0000000008004ca8        0x4 /usr/bin/../lib/gcc/arm-none-eabi/6.3.1/../../../../arm-none-eabi/lib/thumb/v7e-m/fpv4-sp/hard/libnosys.a(_exit.o)
                0x0000000008004ca8                _exit
 .text          0x0000000008004cac        0x0 /usr/bin/../lib/gcc/arm-none-eabi/6.3.1/thumb/v7e-m/fpv4-sp/hard/crtend.o
 .text          0x0000000008004cac        0x0 /usr/bin/../lib/gcc/arm-none-eabi/6.3.1/thumb/v7e-m/fpv4-sp/hard/crtn.o
                0x0000000008004cac                . = ALIGN (0x4)
 *(.rodata*)
 .rodata._global_impure_ptr
                0x0000000008004cac        0x4 /usr/bin/../lib/gcc/arm-none-eabi/6.3.1/../../../../arm-none-eabi/lib/thumb/v7e-m/fpv4-sp/hard/libg.a(lib_a-impure.o)
                0x0000000008004cac                _global_impure_ptr
                0x0000000008004cb0                . = ALIGN (0x4)

.glue_7         0x0000000008004cb0        0x0
 .glue_7        0x0000000008004cb0        0x0 linker stubs

.glue_7t        0x0000000008004cb0        0x0
 .glue_7t       0x0000000008004cb0        0x0 linker stubs

.vfp11_veneer   0x0000000008004cb0        0x0
 .vfp11_veneer  0x0000000008004cb0        0x0 linker stubs

.v4_bx          0x0000000008004cb0        0x0
 .v4_bx         0x0000000008004cb0        0x0 linker stubs

.init           0x0000000008004cb0        0xc
 .init          0x0000000008004cb0        0x4 /usr/bin/../lib/gcc/arm-none-eabi/6.3.1/thumb/v7e-m/fpv4-sp/hard/crti.o
                0x0000000008004cb0                _init
 .init          0x0000000008004cb4        0x8 /usr/bin/../lib/gcc/arm-none-eabi/6.3.1/thumb/v7e-m/fpv4-sp/hard/crtn.o

.fini           0x0000000008004cbc        0xc
 .fini          0x0000000008004cbc        0x4 /usr/bin/../lib/gcc/arm-none-eabi/6.3.1/thumb/v7e-m/fpv4-sp/hard/crti.o
                0x0000000008004cbc                _fini
 .fini          0x0000000008004cc0        0x8 /usr/bin/../lib/gcc/arm-none-eabi/6.3.1/thumb/v7e-m/fpv4-sp/hard/crtn.o

.iplt           0x0000000008004cc8        0x0
 .iplt          0x0000000008004cc8        0x0 /usr/bin/../lib/gcc/arm-none-eabi/6.3.1/thumb/v7e-m/fpv4-sp/hard/crtbegin.o

.rel.dyn        0x0000000008004cc8        0x0
 .rel.iplt      0x0000000008004cc8        0x0 /usr/bin/../lib/gcc/arm-none-eabi/6.3.1/thumb/v7e-m/fpv4-sp/hard/crtbegin.o
                0x0000000008004cc8                . = ALIGN (0x4)
                0x0000000008004cc8                _etext = .

.data           0x0000000020000000      0x48c load address 0x0000000008004cc8
                0x0000000020000000                _sdata = .
 *(.data*)
 .data          0x0000000020000000        0x0 /usr/bin/../lib/gcc/arm-none-eabi/6.3.1/thumb/v7e-m/fpv4-sp/hard/crti.o
 .data          0x0000000020000000        0x4 /usr/bin/../lib/gcc/arm-none-eabi/6.3.1/thumb/v7e-m/fpv4-sp/hard/crtbegin.o
                0x0000000020000000                __dso_handle
 .data          0x0000000020000004        0x0 /usr/bin/../lib/gcc/arm-none-eabi/6.3.1/../../../../arm-none-eabi/lib/thumb/v7e-m/fpv4-sp/hard/crt0.o
 .data          0x0000000020000004       0x30 /tmp/ccgnh6wp.o
                0x0000000020000004                pwm_en_seq
                0x000000002000001c                fet_en_seq
 .data          0x0000000020000034        0x0 /tmp/ccxaYpkH.o
 .data          0x0000000020000034        0x0 /tmp/ccAKmBiZ.o
 .data          0x0000000020000034        0x0 /tmp/ccduIBrh.o
 .data          0x0000000020000034        0x0 /tmp/cck2boLz.o
 .data          0x0000000020000034        0x0 /tmp/ccOKgbhS.o
 .data          0x0000000020000034       0x14 /tmp/cc6VFDZa.o
                0x0000000020000034                SystemCoreClock
                0x0000000020000038                AHBPrescTable
 .data          0x0000000020000048        0x0 /tmp/ccoC2zSt.o
 .data          0x0000000020000048        0x0 /tmp/cc5zuYMM.o
 .data          0x0000000020000048        0x0 /tmp/ccS8uRS5.o
 .data          0x0000000020000048        0x0 /tmp/ccYXHpap.o
 .data          0x0000000020000048        0x0 /tmp/ccCurHDI.o
 .data          0x0000000020000048        0x0 /tmp/cccSrSi2.o
 .data          0x0000000020000048       0x10 /tmp/ccpSsggm.o
 .data          0x0000000020000058        0x0 /tmp/cc0459qG.o
 .data          0x0000000020000058        0x0 /tmp/cc4jDQY0.o
 .data          0x0000000020000058        0x0 /tmp/cc0o0QOl.o
 .data          0x0000000020000058        0x0 /usr/bin/../lib/gcc/arm-none-eabi/6.3.1/../../../../arm-none-eabi/lib/thumb/v7e-m/fpv4-sp/hard/libg.a(lib_a-exit.o)
 .data          0x0000000020000058        0x0 /usr/bin/../lib/gcc/arm-none-eabi/6.3.1/../../../../arm-none-eabi/lib/thumb/v7e-m/fpv4-sp/hard/libg.a(lib_a-impure.o)
 .data._impure_ptr
                0x0000000020000058        0x4 /usr/bin/../lib/gcc/arm-none-eabi/6.3.1/../../../../arm-none-eabi/lib/thumb/v7e-m/fpv4-sp/hard/libg.a(lib_a-impure.o)
                0x0000000020000058                _impure_ptr
 *fill*         0x000000002000005c        0x4 
 .data.impure_data
                0x0000000020000060      0x428 /usr/bin/../lib/gcc/arm-none-eabi/6.3.1/../../../../arm-none-eabi/lib/thumb/v7e-m/fpv4-sp/hard/libg.a(lib_a-impure.o)
 .data          0x0000000020000488        0x0 /usr/bin/../lib/gcc/arm-none-eabi/6.3.1/../../../../arm-none-eabi/lib/thumb/v7e-m/fpv4-sp/hard/libg.a(lib_a-init.o)
 .data          0x0000000020000488        0x0 /usr/bin/../lib/gcc/arm-none-eabi/6.3.1/../../../../arm-none-eabi/lib/thumb/v7e-m/fpv4-sp/hard/libg.a(lib_a-memset.o)
 .data          0x0000000020000488        0x0 /usr/bin/../lib/gcc/arm-none-eabi/6.3.1/../../../../arm-none-eabi/lib/thumb/v7e-m/fpv4-sp/hard/libg.a(lib_a-__call_atexit.o)
 .data.__atexit_recursive_mutex
                0x0000000020000488        0x4 /usr/bin/../lib/gcc/arm-none-eabi/6.3.1/../../../../arm-none-eabi/lib/thumb/v7e-m/fpv4-sp/hard/libg.a(lib_a-__call_atexit.o)
                0x0000000020000488                __atexit_recursive_mutex
 .data          0x000000002000048c        0x0 /usr/bin/../lib/gcc/arm-none-eabi/6.3.1/../../../../arm-none-eabi/lib/thumb/v7e-m/fpv4-sp/hard/libg.a(lib_a-atexit.o)
 .data          0x000000002000048c        0x0 /usr/bin/../lib/gcc/arm-none-eabi/6.3.1/../../../../arm-none-eabi/lib/thumb/v7e-m/fpv4-sp/hard/libg.a(lib_a-fini.o)
 .data          0x000000002000048c        0x0 /usr/bin/../lib/gcc/arm-none-eabi/6.3.1/../../../../arm-none-eabi/lib/thumb/v7e-m/fpv4-sp/hard/libg.a(lib_a-lock.o)
 .data          0x000000002000048c        0x0 /usr/bin/../lib/gcc/arm-none-eabi/6.3.1/../../../../arm-none-eabi/lib/thumb/v7e-m/fpv4-sp/hard/libg.a(lib_a-__atexit.o)
 .data          0x000000002000048c        0x0 /usr/bin/../lib/gcc/arm-none-eabi/6.3.1/../../../../arm-none-eabi/lib/thumb/v7e-m/fpv4-sp/hard/libnosys.a(_exit.o)
 .data          0x000000002000048c        0x0 /usr/bin/../lib/gcc/arm-none-eabi/6.3.1/thumb/v7e-m/fpv4-sp/hard/crtend.o
 .data          0x000000002000048c        0x0 /usr/bin/../lib/gcc/arm-none-eabi/6.3.1/thumb/v7e-m/fpv4-sp/hard/crtn.o
                0x000000002000048c                . = ALIGN (0x4)
                0x000000002000048c                _edata = .
                0x0000000008004cc8                _sidata = LOADADDR (.data)

.init_array     0x000000002000048c        0x4 load address 0x0000000008005154
 .init_array    0x000000002000048c        0x4 /usr/bin/../lib/gcc/arm-none-eabi/6.3.1/thumb/v7e-m/fpv4-sp/hard/crtbegin.o

.fini_array     0x0000000020000490        0x4 load address 0x0000000008005158
 .fini_array    0x0000000020000490        0x4 /usr/bin/../lib/gcc/arm-none-eabi/6.3.1/thumb/v7e-m/fpv4-sp/hard/crtbegin.o

.jcr            0x0000000020000494        0x4 load address 0x000000000800515c
 .jcr           0x0000000020000494        0x0 /usr/bin/../lib/gcc/arm-none-eabi/6.3.1/thumb/v7e-m/fpv4-sp/hard/crtbegin.o
 .jcr           0x0000000020000494        0x4 /usr/bin/../lib/gcc/arm-none-eabi/6.3.1/thumb/v7e-m/fpv4-sp/hard/crtend.o

.igot.plt       0x0000000020000498        0x0 load address 0x0000000008005160
 .igot.plt      0x0000000020000498        0x0 /usr/bin/../lib/gcc/arm-none-eabi/6.3.1/thumb/v7e-m/fpv4-sp/hard/crtbegin.o

.init_array.00000
                0x0000000020000498        0x4 load address 0x0000000008005160
 .init_array.00000
                0x0000000020000498        0x4 /usr/bin/../lib/gcc/arm-none-eabi/6.3.1/../../../../arm-none-eabi/lib/thumb/v7e-m/fpv4-sp/hard/libg.a(lib_a-__call_atexit.o)

.bss            0x00000000200004a0       0x4c load address 0x0000000008005164
                0x00000000200004a0                __bss_start__ = .
                0x00000000200004a0                _sbss = .
 *(.bss*)
 .bss           0x00000000200004a0        0x0 /usr/bin/../lib/gcc/arm-none-eabi/6.3.1/thumb/v7e-m/fpv4-sp/hard/crti.o
 .bss           0x00000000200004a0       0x1c /usr/bin/../lib/gcc/arm-none-eabi/6.3.1/thumb/v7e-m/fpv4-sp/hard/crtbegin.o
 .bss           0x00000000200004bc        0x0 /usr/bin/../lib/gcc/arm-none-eabi/6.3.1/../../../../arm-none-eabi/lib/thumb/v7e-m/fpv4-sp/hard/crt0.o
 .bss           0x00000000200004bc        0x2 /tmp/ccgnh6wp.o
                0x00000000200004bc                pwm_val
 .bss           0x00000000200004be        0x2 /tmp/ccxaYpkH.o
                0x00000000200004be                val
 .bss           0x00000000200004c0        0x0 /tmp/ccAKmBiZ.o
 .bss           0x00000000200004c0        0x0 /tmp/ccduIBrh.o
 .bss           0x00000000200004c0        0x8 /tmp/cck2boLz.o
                0x00000000200004c0                msTicks
 .bss           0x00000000200004c8        0x0 /tmp/ccOKgbhS.o
 .bss           0x00000000200004c8        0x0 /tmp/cc6VFDZa.o
 .bss           0x00000000200004c8        0x0 /tmp/ccoC2zSt.o
 .bss           0x00000000200004c8        0x0 /tmp/cc5zuYMM.o
 .bss           0x00000000200004c8        0x0 /tmp/ccS8uRS5.o
 .bss           0x00000000200004c8        0x0 /tmp/ccYXHpap.o
 .bss           0x00000000200004c8        0x0 /tmp/ccCurHDI.o
 .bss           0x00000000200004c8        0x0 /tmp/cccSrSi2.o
 .bss           0x00000000200004c8        0x0 /tmp/ccpSsggm.o
 .bss           0x00000000200004c8        0x0 /tmp/cc0459qG.o
 .bss           0x00000000200004c8        0x0 /tmp/cc4jDQY0.o
 .bss           0x00000000200004c8        0x0 /tmp/cc0o0QOl.o
 .bss           0x00000000200004c8        0x0 /usr/bin/../lib/gcc/arm-none-eabi/6.3.1/../../../../arm-none-eabi/lib/thumb/v7e-m/fpv4-sp/hard/libg.a(lib_a-exit.o)
 .bss           0x00000000200004c8        0x0 /usr/bin/../lib/gcc/arm-none-eabi/6.3.1/../../../../arm-none-eabi/lib/thumb/v7e-m/fpv4-sp/hard/libg.a(lib_a-impure.o)
 .bss           0x00000000200004c8        0x0 /usr/bin/../lib/gcc/arm-none-eabi/6.3.1/../../../../arm-none-eabi/lib/thumb/v7e-m/fpv4-sp/hard/libg.a(lib_a-init.o)
 .bss           0x00000000200004c8        0x0 /usr/bin/../lib/gcc/arm-none-eabi/6.3.1/../../../../arm-none-eabi/lib/thumb/v7e-m/fpv4-sp/hard/libg.a(lib_a-memset.o)
 .bss           0x00000000200004c8        0x0 /usr/bin/../lib/gcc/arm-none-eabi/6.3.1/../../../../arm-none-eabi/lib/thumb/v7e-m/fpv4-sp/hard/libg.a(lib_a-__call_atexit.o)
 .bss           0x00000000200004c8        0x0 /usr/bin/../lib/gcc/arm-none-eabi/6.3.1/../../../../arm-none-eabi/lib/thumb/v7e-m/fpv4-sp/hard/libg.a(lib_a-atexit.o)
 .bss           0x00000000200004c8        0x0 /usr/bin/../lib/gcc/arm-none-eabi/6.3.1/../../../../arm-none-eabi/lib/thumb/v7e-m/fpv4-sp/hard/libg.a(lib_a-fini.o)
 .bss           0x00000000200004c8        0x0 /usr/bin/../lib/gcc/arm-none-eabi/6.3.1/../../../../arm-none-eabi/lib/thumb/v7e-m/fpv4-sp/hard/libg.a(lib_a-lock.o)
 .bss           0x00000000200004c8        0x0 /usr/bin/../lib/gcc/arm-none-eabi/6.3.1/../../../../arm-none-eabi/lib/thumb/v7e-m/fpv4-sp/hard/libg.a(lib_a-__atexit.o)
 .bss           0x00000000200004c8        0x0 /usr/bin/../lib/gcc/arm-none-eabi/6.3.1/../../../../arm-none-eabi/lib/thumb/v7e-m/fpv4-sp/hard/libnosys.a(_exit.o)
 .bss           0x00000000200004c8        0x0 /usr/bin/../lib/gcc/arm-none-eabi/6.3.1/thumb/v7e-m/fpv4-sp/hard/crtend.o
 .bss           0x00000000200004c8        0x0 /usr/bin/../lib/gcc/arm-none-eabi/6.3.1/thumb/v7e-m/fpv4-sp/hard/crtn.o
 *(COMMON)
 COMMON         0x00000000200004c8       0x21 /usr/bin/../lib/gcc/arm-none-eabi/6.3.1/../../../../arm-none-eabi/lib/thumb/v7e-m/fpv4-sp/hard/libg.a(lib_a-lock.o)
                0x00000000200004c8                __lock___atexit_recursive_mutex
                0x00000000200004cc                __lock___arc4random_mutex
                0x00000000200004d0                __lock___env_recursive_mutex
                0x00000000200004d4                __lock___sinit_recursive_mutex
                0x00000000200004d8                __lock___malloc_recursive_mutex
                0x00000000200004dc                __lock___at_quick_exit_mutex
                0x00000000200004e0                __lock___dd_hash_mutex
                0x00000000200004e4                __lock___tz_mutex
                0x00000000200004e8                __lock___sfp_recursive_mutex
                0x00000000200004ec                . = ALIGN (0x4)
 *fill*         0x00000000200004e9        0x3 
                0x00000000200004ec                _ebss = .
                0x00000000200004ec                __bss_end__ = .
                0x00000000200004ec                . = ALIGN (0x4)
                0x00000000200004ec                end = .
                0x0000000020020000                PROVIDE (_estack, (ORIGIN (ram) + LENGTH (ram)))
OUTPUT(build/sensored.elf elf32-littlearm)

.ARM.attributes
                0x0000000000000000       0x30
 .ARM.attributes
                0x0000000000000000       0x22 /usr/bin/../lib/gcc/arm-none-eabi/6.3.1/thumb/v7e-m/fpv4-sp/hard/crti.o
 .ARM.attributes
                0x0000000000000022       0x34 /usr/bin/../lib/gcc/arm-none-eabi/6.3.1/thumb/v7e-m/fpv4-sp/hard/crtbegin.o
 .ARM.attributes
                0x0000000000000056       0x20 /usr/bin/../lib/gcc/arm-none-eabi/6.3.1/../../../../arm-none-eabi/lib/thumb/v7e-m/fpv4-sp/hard/crt0.o
 .ARM.attributes
                0x0000000000000076       0x39 /tmp/ccgnh6wp.o
 .ARM.attributes
                0x00000000000000af       0x39 /tmp/ccxaYpkH.o
 .ARM.attributes
                0x00000000000000e8       0x39 /tmp/ccAKmBiZ.o
 .ARM.attributes
                0x0000000000000121       0x39 /tmp/ccduIBrh.o
 .ARM.attributes
                0x000000000000015a       0x39 /tmp/cck2boLz.o
 .ARM.attributes
                0x0000000000000193       0x39 /tmp/ccOKgbhS.o
 .ARM.attributes
                0x00000000000001cc       0x39 /tmp/cc6VFDZa.o
 .ARM.attributes
                0x0000000000000205       0x39 /tmp/ccoC2zSt.o
 .ARM.attributes
                0x000000000000023e       0x21 /tmp/cc5zuYMM.o
 .ARM.attributes
                0x000000000000025f       0x39 /tmp/ccS8uRS5.o
 .ARM.attributes
                0x0000000000000298       0x39 /tmp/ccYXHpap.o
 .ARM.attributes
                0x00000000000002d1       0x39 /tmp/ccCurHDI.o
 .ARM.attributes
                0x000000000000030a       0x39 /tmp/cccSrSi2.o
 .ARM.attributes
                0x0000000000000343       0x39 /tmp/ccpSsggm.o
 .ARM.attributes
                0x000000000000037c       0x39 /tmp/cc0459qG.o
 .ARM.attributes
                0x00000000000003b5       0x39 /tmp/cc4jDQY0.o
 .ARM.attributes
                0x00000000000003ee       0x39 /tmp/cc0o0QOl.o
 .ARM.attributes
                0x0000000000000427       0x34 /usr/bin/../lib/gcc/arm-none-eabi/6.3.1/../../../../arm-none-eabi/lib/thumb/v7e-m/fpv4-sp/hard/libg.a(lib_a-exit.o)
 .ARM.attributes
                0x000000000000045b       0x34 /usr/bin/../lib/gcc/arm-none-eabi/6.3.1/../../../../arm-none-eabi/lib/thumb/v7e-m/fpv4-sp/hard/libg.a(lib_a-impure.o)
 .ARM.attributes
                0x000000000000048f       0x34 /usr/bin/../lib/gcc/arm-none-eabi/6.3.1/../../../../arm-none-eabi/lib/thumb/v7e-m/fpv4-sp/hard/libg.a(lib_a-init.o)
 .ARM.attributes
                0x00000000000004c3       0x34 /usr/bin/../lib/gcc/arm-none-eabi/6.3.1/../../../../arm-none-eabi/lib/thumb/v7e-m/fpv4-sp/hard/libg.a(lib_a-memset.o)
 .ARM.attributes
                0x00000000000004f7       0x34 /usr/bin/../lib/gcc/arm-none-eabi/6.3.1/../../../../arm-none-eabi/lib/thumb/v7e-m/fpv4-sp/hard/libg.a(lib_a-__call_atexit.o)
 .ARM.attributes
                0x000000000000052b       0x34 /usr/bin/../lib/gcc/arm-none-eabi/6.3.1/../../../../arm-none-eabi/lib/thumb/v7e-m/fpv4-sp/hard/libg.a(lib_a-atexit.o)
 .ARM.attributes
                0x000000000000055f       0x34 /usr/bin/../lib/gcc/arm-none-eabi/6.3.1/../../../../arm-none-eabi/lib/thumb/v7e-m/fpv4-sp/hard/libg.a(lib_a-fini.o)
 .ARM.attributes
                0x0000000000000593       0x34 /usr/bin/../lib/gcc/arm-none-eabi/6.3.1/../../../../arm-none-eabi/lib/thumb/v7e-m/fpv4-sp/hard/libg.a(lib_a-lock.o)
 .ARM.attributes
                0x00000000000005c7       0x34 /usr/bin/../lib/gcc/arm-none-eabi/6.3.1/../../../../arm-none-eabi/lib/thumb/v7e-m/fpv4-sp/hard/libg.a(lib_a-__atexit.o)
 .ARM.attributes
                0x00000000000005fb       0x34 /usr/bin/../lib/gcc/arm-none-eabi/6.3.1/../../../../arm-none-eabi/lib/thumb/v7e-m/fpv4-sp/hard/libnosys.a(_exit.o)
 .ARM.attributes
                0x000000000000062f       0x34 /usr/bin/../lib/gcc/arm-none-eabi/6.3.1/thumb/v7e-m/fpv4-sp/hard/crtend.o
 .ARM.attributes
                0x0000000000000663       0x22 /usr/bin/../lib/gcc/arm-none-eabi/6.3.1/thumb/v7e-m/fpv4-sp/hard/crtn.o

.comment        0x0000000000000000       0x7f
 .comment       0x0000000000000000       0x7f /tmp/ccgnh6wp.o
                                         0x80 (size before relaxing)
 .comment       0x000000000000007f       0x80 /tmp/ccxaYpkH.o
 .comment       0x000000000000007f       0x80 /tmp/ccAKmBiZ.o
 .comment       0x000000000000007f       0x80 /tmp/ccduIBrh.o
 .comment       0x000000000000007f       0x80 /tmp/cck2boLz.o
 .comment       0x000000000000007f       0x80 /tmp/ccOKgbhS.o
 .comment       0x000000000000007f       0x80 /tmp/cc6VFDZa.o
 .comment       0x000000000000007f       0x80 /tmp/ccoC2zSt.o
 .comment       0x000000000000007f       0x80 /tmp/ccS8uRS5.o
 .comment       0x000000000000007f       0x80 /tmp/ccYXHpap.o
 .comment       0x000000000000007f       0x80 /tmp/ccCurHDI.o
 .comment       0x000000000000007f       0x80 /tmp/cccSrSi2.o
 .comment       0x000000000000007f       0x80 /tmp/ccpSsggm.o
 .comment       0x000000000000007f       0x80 /tmp/cc0459qG.o
 .comment       0x000000000000007f       0x80 /tmp/cc4jDQY0.o
 .comment       0x000000000000007f       0x80 /tmp/cc0o0QOl.o

.debug_info     0x0000000000000000     0x6eeb
 .debug_info    0x0000000000000000      0x673 /tmp/ccgnh6wp.o
 .debug_info    0x0000000000000673      0x6ea /tmp/ccxaYpkH.o
 .debug_info    0x0000000000000d5d      0x690 /tmp/ccAKmBiZ.o
 .debug_info    0x00000000000013ed       0xfe /tmp/ccduIBrh.o
 .debug_info    0x00000000000014eb      0x190 /tmp/cck2boLz.o
 .debug_info    0x000000000000167b      0x709 /tmp/ccOKgbhS.o
 .debug_info    0x0000000000001d84      0x614 /tmp/cc6VFDZa.o
 .debug_info    0x0000000000002398      0x2be /tmp/ccoC2zSt.o
 .debug_info    0x0000000000002656       0x83 /tmp/cc5zuYMM.o
 .debug_info    0x00000000000026d9      0x54d /tmp/ccS8uRS5.o
 .debug_info    0x0000000000002c26      0x1ef /tmp/ccYXHpap.o
 .debug_info    0x0000000000002e15      0x357 /tmp/ccCurHDI.o
 .debug_info    0x000000000000316c      0x628 /tmp/cccSrSi2.o
 .debug_info    0x0000000000003794      0xe67 /tmp/ccpSsggm.o
 .debug_info    0x00000000000045fb      0x2a7 /tmp/cc0459qG.o
 .debug_info    0x00000000000048a2     0x1c74 /tmp/cc4jDQY0.o
 .debug_info    0x0000000000006516      0x9d5 /tmp/cc0o0QOl.o

.debug_abbrev   0x0000000000000000     0x1553
 .debug_abbrev  0x0000000000000000      0x177 /tmp/ccgnh6wp.o
 .debug_abbrev  0x0000000000000177      0x169 /tmp/ccxaYpkH.o
 .debug_abbrev  0x00000000000002e0      0x161 /tmp/ccAKmBiZ.o
 .debug_abbrev  0x0000000000000441       0x96 /tmp/ccduIBrh.o
 .debug_abbrev  0x00000000000004d7       0xa3 /tmp/cck2boLz.o
 .debug_abbrev  0x000000000000057a      0x151 /tmp/ccOKgbhS.o
 .debug_abbrev  0x00000000000006cb      0x158 /tmp/cc6VFDZa.o
 .debug_abbrev  0x0000000000000823      0x114 /tmp/ccoC2zSt.o
 .debug_abbrev  0x0000000000000937       0x12 /tmp/cc5zuYMM.o
 .debug_abbrev  0x0000000000000949      0x172 /tmp/ccS8uRS5.o
 .debug_abbrev  0x0000000000000abb       0xf3 /tmp/ccYXHpap.o
 .debug_abbrev  0x0000000000000bae      0x1bc /tmp/ccCurHDI.o
 .debug_abbrev  0x0000000000000d6a      0x1b8 /tmp/cccSrSi2.o
 .debug_abbrev  0x0000000000000f22      0x1cf /tmp/ccpSsggm.o
 .debug_abbrev  0x00000000000010f1      0x146 /tmp/cc0459qG.o
 .debug_abbrev  0x0000000000001237      0x19a /tmp/cc4jDQY0.o
 .debug_abbrev  0x00000000000013d1      0x182 /tmp/cc0o0QOl.o

.debug_aranges  0x0000000000000000      0x228
 .debug_aranges
                0x0000000000000000       0x20 /tmp/ccgnh6wp.o
 .debug_aranges
                0x0000000000000020       0x20 /tmp/ccxaYpkH.o
 .debug_aranges
                0x0000000000000040       0x20 /tmp/ccAKmBiZ.o
 .debug_aranges
                0x0000000000000060       0x20 /tmp/ccduIBrh.o
 .debug_aranges
                0x0000000000000080       0x20 /tmp/cck2boLz.o
 .debug_aranges
                0x00000000000000a0       0x20 /tmp/ccOKgbhS.o
 .debug_aranges
                0x00000000000000c0       0x20 /tmp/cc6VFDZa.o
 .debug_aranges
                0x00000000000000e0       0x20 /tmp/ccoC2zSt.o
 .debug_aranges
                0x0000000000000100       0x28 /tmp/cc5zuYMM.o
 .debug_aranges
                0x0000000000000128       0x20 /tmp/ccS8uRS5.o
 .debug_aranges
                0x0000000000000148       0x20 /tmp/ccYXHpap.o
 .debug_aranges
                0x0000000000000168       0x20 /tmp/ccCurHDI.o
 .debug_aranges
                0x0000000000000188       0x20 /tmp/cccSrSi2.o
 .debug_aranges
                0x00000000000001a8       0x20 /tmp/ccpSsggm.o
 .debug_aranges
                0x00000000000001c8       0x20 /tmp/cc0459qG.o
 .debug_aranges
                0x00000000000001e8       0x20 /tmp/cc4jDQY0.o
 .debug_aranges
                0x0000000000000208       0x20 /tmp/cc0o0QOl.o

.debug_line     0x0000000000000000     0x1ba3
 .debug_line    0x0000000000000000      0x174 /tmp/ccgnh6wp.o
 .debug_line    0x0000000000000174      0x154 /tmp/ccxaYpkH.o
 .debug_line    0x00000000000002c8      0x10b /tmp/ccAKmBiZ.o
 .debug_line    0x00000000000003d3       0xd7 /tmp/ccduIBrh.o
 .debug_line    0x00000000000004aa      0x104 /tmp/cck2boLz.o
 .debug_line    0x00000000000005ae      0x149 /tmp/ccOKgbhS.o
 .debug_line    0x00000000000006f7      0x14d /tmp/cc6VFDZa.o
 .debug_line    0x0000000000000844      0x110 /tmp/ccoC2zSt.o
 .debug_line    0x0000000000000954       0x75 /tmp/cc5zuYMM.o
 .debug_line    0x00000000000009c9      0x140 /tmp/ccS8uRS5.o
 .debug_line    0x0000000000000b09      0x11c /tmp/ccYXHpap.o
 .debug_line    0x0000000000000c25      0x173 /tmp/ccCurHDI.o
 .debug_line    0x0000000000000d98      0x1fd /tmp/cccSrSi2.o
 .debug_line    0x0000000000000f95      0x2fd /tmp/ccpSsggm.o
 .debug_line    0x0000000000001292      0x128 /tmp/cc0459qG.o
 .debug_line    0x00000000000013ba      0x552 /tmp/cc4jDQY0.o
 .debug_line    0x000000000000190c      0x297 /tmp/cc0o0QOl.o

.debug_str      0x0000000000000000     0x29c3
 .debug_str     0x0000000000000000      0x5b8 /tmp/ccgnh6wp.o
                                        0x60e (size before relaxing)
 .debug_str     0x00000000000005b8      0x653 /tmp/ccxaYpkH.o
                                        0xa38 (size before relaxing)
 .debug_str     0x0000000000000c0b       0xde /tmp/ccAKmBiZ.o
                                        0x7f7 (size before relaxing)
 .debug_str     0x0000000000000ce9       0x23 /tmp/ccduIBrh.o
                                        0x1f6 (size before relaxing)
 .debug_str     0x0000000000000d0c       0xb0 /tmp/cck2boLz.o
                                        0x28e (size before relaxing)
 .debug_str     0x0000000000000dbc      0x10d /tmp/ccOKgbhS.o
                                        0xa9b (size before relaxing)
 .debug_str     0x0000000000000ec9      0x179 /tmp/cc6VFDZa.o
                                        0x421 (size before relaxing)
 .debug_str     0x0000000000001042       0x19 /tmp/ccoC2zSt.o
                                        0x388 (size before relaxing)
 .debug_str     0x000000000000105b       0xf8 /tmp/ccS8uRS5.o
                                        0x438 (size before relaxing)
 .debug_str     0x0000000000001153       0xb8 /tmp/ccYXHpap.o
                                        0x2aa (size before relaxing)
 .debug_str     0x000000000000120b       0xe6 /tmp/ccCurHDI.o
                                        0x3b6 (size before relaxing)
 .debug_str     0x00000000000012f1      0x179 /tmp/cccSrSi2.o
                                        0x50a (size before relaxing)
 .debug_str     0x000000000000146a      0x699 /tmp/ccpSsggm.o
                                        0xa2c (size before relaxing)
 .debug_str     0x0000000000001b03      0x159 /tmp/cc0459qG.o
                                        0x378 (size before relaxing)
 .debug_str     0x0000000000001c5c      0x9da /tmp/cc4jDQY0.o
                                        0xe3a (size before relaxing)
 .debug_str     0x0000000000002636      0x38d /tmp/cc0o0QOl.o
                                        0x6f9 (size before relaxing)

.debug_frame    0x0000000000000000     0x27c8
 .debug_frame   0x0000000000000000       0xe4 /tmp/ccgnh6wp.o
 .debug_frame   0x00000000000000e4       0x58 /tmp/ccxaYpkH.o
 .debug_frame   0x000000000000013c       0x78 /tmp/ccAKmBiZ.o
 .debug_frame   0x00000000000001b4       0x38 /tmp/ccduIBrh.o
 .debug_frame   0x00000000000001ec      0x138 /tmp/cck2boLz.o
 .debug_frame   0x0000000000000324       0x58 /tmp/ccOKgbhS.o
 .debug_frame   0x000000000000037c       0x7c /tmp/cc6VFDZa.o
 .debug_frame   0x00000000000003f8       0x34 /tmp/ccoC2zSt.o
 .debug_frame   0x000000000000042c       0xd8 /tmp/ccS8uRS5.o
 .debug_frame   0x0000000000000504       0xc8 /tmp/ccYXHpap.o
 .debug_frame   0x00000000000005cc      0x148 /tmp/ccCurHDI.o
 .debug_frame   0x0000000000000714      0x23c /tmp/cccSrSi2.o
 .debug_frame   0x0000000000000950      0x83c /tmp/ccpSsggm.o
 .debug_frame   0x000000000000118c      0x11c /tmp/cc0459qG.o
 .debug_frame   0x00000000000012a8      0xe54 /tmp/cc4jDQY0.o
 .debug_frame   0x00000000000020fc      0x490 /tmp/cc0o0QOl.o
 .debug_frame   0x000000000000258c       0x28 /usr/bin/../lib/gcc/arm-none-eabi/6.3.1/../../../../arm-none-eabi/lib/thumb/v7e-m/fpv4-sp/hard/libg.a(lib_a-exit.o)
 .debug_frame   0x00000000000025b4       0x2c /usr/bin/../lib/gcc/arm-none-eabi/6.3.1/../../../../arm-none-eabi/lib/thumb/v7e-m/fpv4-sp/hard/libg.a(lib_a-init.o)
 .debug_frame   0x00000000000025e0       0x34 /usr/bin/../lib/gcc/arm-none-eabi/6.3.1/../../../../arm-none-eabi/lib/thumb/v7e-m/fpv4-sp/hard/libg.a(lib_a-memset.o)
 .debug_frame   0x0000000000002614       0x5c /usr/bin/../lib/gcc/arm-none-eabi/6.3.1/../../../../arm-none-eabi/lib/thumb/v7e-m/fpv4-sp/hard/libg.a(lib_a-__call_atexit.o)
 .debug_frame   0x0000000000002670       0x20 /usr/bin/../lib/gcc/arm-none-eabi/6.3.1/../../../../arm-none-eabi/lib/thumb/v7e-m/fpv4-sp/hard/libg.a(lib_a-atexit.o)
 .debug_frame   0x0000000000002690       0x34 /usr/bin/../lib/gcc/arm-none-eabi/6.3.1/../../../../arm-none-eabi/lib/thumb/v7e-m/fpv4-sp/hard/libg.a(lib_a-fini.o)
 .debug_frame   0x00000000000026c4       0xb0 /usr/bin/../lib/gcc/arm-none-eabi/6.3.1/../../../../arm-none-eabi/lib/thumb/v7e-m/fpv4-sp/hard/libg.a(lib_a-lock.o)
 .debug_frame   0x0000000000002774       0x34 /usr/bin/../lib/gcc/arm-none-eabi/6.3.1/../../../../arm-none-eabi/lib/thumb/v7e-m/fpv4-sp/hard/libg.a(lib_a-__atexit.o)
 .debug_frame   0x00000000000027a8       0x20 /usr/bin/../lib/gcc/arm-none-eabi/6.3.1/../../../../arm-none-eabi/lib/thumb/v7e-m/fpv4-sp/hard/libnosys.a(_exit.o)

.debug_ranges   0x0000000000000000       0x38
 .debug_ranges  0x0000000000000000       0x18 /tmp/ccxaYpkH.o
 .debug_ranges  0x0000000000000018       0x20 /tmp/cc5zuYMM.o
