Archive member included to satisfy reference by file (symbol)

/usr/bin/../lib/gcc/arm-none-eabi/6.3.1/../../../../arm-none-eabi/lib/thumb/v7e-m/fpv4-sp/hard/libg.a(lib_a-exit.o)
                              /usr/bin/../lib/gcc/arm-none-eabi/6.3.1/../../../../arm-none-eabi/lib/thumb/v7e-m/fpv4-sp/hard/crt0.o (exit)
/usr/bin/../lib/gcc/arm-none-eabi/6.3.1/../../../../arm-none-eabi/lib/thumb/v7e-m/fpv4-sp/hard/libg.a(lib_a-impure.o)
                              /usr/bin/../lib/gcc/arm-none-eabi/6.3.1/../../../../arm-none-eabi/lib/thumb/v7e-m/fpv4-sp/hard/libg.a(lib_a-exit.o) (_global_impure_ptr)
/usr/bin/../lib/gcc/arm-none-eabi/6.3.1/../../../../arm-none-eabi/lib/thumb/v7e-m/fpv4-sp/hard/libg.a(lib_a-init.o)
                              /usr/bin/../lib/gcc/arm-none-eabi/6.3.1/../../../../arm-none-eabi/lib/thumb/v7e-m/fpv4-sp/hard/crt0.o (__libc_init_array)
/usr/bin/../lib/gcc/arm-none-eabi/6.3.1/../../../../arm-none-eabi/lib/thumb/v7e-m/fpv4-sp/hard/libg.a(lib_a-memset.o)
                              /usr/bin/../lib/gcc/arm-none-eabi/6.3.1/../../../../arm-none-eabi/lib/thumb/v7e-m/fpv4-sp/hard/crt0.o (memset)
/usr/bin/../lib/gcc/arm-none-eabi/6.3.1/../../../../arm-none-eabi/lib/thumb/v7e-m/fpv4-sp/hard/libg.a(lib_a-__call_atexit.o)
                              /usr/bin/../lib/gcc/arm-none-eabi/6.3.1/../../../../arm-none-eabi/lib/thumb/v7e-m/fpv4-sp/hard/libg.a(lib_a-exit.o) (__call_exitprocs)
/usr/bin/../lib/gcc/arm-none-eabi/6.3.1/../../../../arm-none-eabi/lib/thumb/v7e-m/fpv4-sp/hard/libg.a(lib_a-atexit.o)
                              /usr/bin/../lib/gcc/arm-none-eabi/6.3.1/../../../../arm-none-eabi/lib/thumb/v7e-m/fpv4-sp/hard/libg.a(lib_a-__call_atexit.o) (atexit)
/usr/bin/../lib/gcc/arm-none-eabi/6.3.1/../../../../arm-none-eabi/lib/thumb/v7e-m/fpv4-sp/hard/libg.a(lib_a-fini.o)
                              /usr/bin/../lib/gcc/arm-none-eabi/6.3.1/../../../../arm-none-eabi/lib/thumb/v7e-m/fpv4-sp/hard/libg.a(lib_a-__call_atexit.o) (__libc_fini_array)
/usr/bin/../lib/gcc/arm-none-eabi/6.3.1/../../../../arm-none-eabi/lib/thumb/v7e-m/fpv4-sp/hard/libg.a(lib_a-lock.o)
                              /usr/bin/../lib/gcc/arm-none-eabi/6.3.1/../../../../arm-none-eabi/lib/thumb/v7e-m/fpv4-sp/hard/libg.a(lib_a-__call_atexit.o) (__retarget_lock_acquire_recursive)
/usr/bin/../lib/gcc/arm-none-eabi/6.3.1/../../../../arm-none-eabi/lib/thumb/v7e-m/fpv4-sp/hard/libg.a(lib_a-__atexit.o)
                              /usr/bin/../lib/gcc/arm-none-eabi/6.3.1/../../../../arm-none-eabi/lib/thumb/v7e-m/fpv4-sp/hard/libg.a(lib_a-atexit.o) (__register_exitproc)
/usr/bin/../lib/gcc/arm-none-eabi/6.3.1/../../../../arm-none-eabi/lib/thumb/v7e-m/fpv4-sp/hard/libnosys.a(_exit.o)
                              /usr/bin/../lib/gcc/arm-none-eabi/6.3.1/../../../../arm-none-eabi/lib/thumb/v7e-m/fpv4-sp/hard/libg.a(lib_a-exit.o) (_exit)

Allocating common symbols
Common symbol       size              file

__lock___atexit_recursive_mutex
                    0x1               /usr/bin/../lib/gcc/arm-none-eabi/6.3.1/../../../../arm-none-eabi/lib/thumb/v7e-m/fpv4-sp/hard/libg.a(lib_a-lock.o)
__lock___arc4random_mutex
                    0x1               /usr/bin/../lib/gcc/arm-none-eabi/6.3.1/../../../../arm-none-eabi/lib/thumb/v7e-m/fpv4-sp/hard/libg.a(lib_a-lock.o)
__lock___env_recursive_mutex
                    0x1               /usr/bin/../lib/gcc/arm-none-eabi/6.3.1/../../../../arm-none-eabi/lib/thumb/v7e-m/fpv4-sp/hard/libg.a(lib_a-lock.o)
__lock___sinit_recursive_mutex
                    0x1               /usr/bin/../lib/gcc/arm-none-eabi/6.3.1/../../../../arm-none-eabi/lib/thumb/v7e-m/fpv4-sp/hard/libg.a(lib_a-lock.o)
__lock___malloc_recursive_mutex
                    0x1               /usr/bin/../lib/gcc/arm-none-eabi/6.3.1/../../../../arm-none-eabi/lib/thumb/v7e-m/fpv4-sp/hard/libg.a(lib_a-lock.o)
__lock___at_quick_exit_mutex
                    0x1               /usr/bin/../lib/gcc/arm-none-eabi/6.3.1/../../../../arm-none-eabi/lib/thumb/v7e-m/fpv4-sp/hard/libg.a(lib_a-lock.o)
__lock___dd_hash_mutex
                    0x1               /usr/bin/../lib/gcc/arm-none-eabi/6.3.1/../../../../arm-none-eabi/lib/thumb/v7e-m/fpv4-sp/hard/libg.a(lib_a-lock.o)
__lock___tz_mutex   0x1               /usr/bin/../lib/gcc/arm-none-eabi/6.3.1/../../../../arm-none-eabi/lib/thumb/v7e-m/fpv4-sp/hard/libg.a(lib_a-lock.o)
__lock___sfp_recursive_mutex
                    0x1               /usr/bin/../lib/gcc/arm-none-eabi/6.3.1/../../../../arm-none-eabi/lib/thumb/v7e-m/fpv4-sp/hard/libg.a(lib_a-lock.o)

Memory Configuration

Name             Origin             Length             Attributes
rom              0x0000000008000000 0x0000000000100000 xr
ram              0x0000000020000000 0x0000000000020000 xrw
ccm              0x0000000001000000 0x0000000000010000 xrw
*default*        0x0000000000000000 0xffffffffffffffff

Linker script and memory map

LOAD /usr/bin/../lib/gcc/arm-none-eabi/6.3.1/thumb/v7e-m/fpv4-sp/hard/crti.o
LOAD /usr/bin/../lib/gcc/arm-none-eabi/6.3.1/thumb/v7e-m/fpv4-sp/hard/crtbegin.o
LOAD /usr/bin/../lib/gcc/arm-none-eabi/6.3.1/../../../../arm-none-eabi/lib/thumb/v7e-m/fpv4-sp/hard/crt0.o
LOAD /tmp/cc0T58kD.o
LOAD /tmp/cc9mXTT8.o
LOAD /tmp/ccok8UDE.o
LOAD /tmp/ccEbu1za.o
LOAD /tmp/ccgHGxIG.o
LOAD /tmp/ccP6kk3c.o
LOAD /tmp/cc7i0lzJ.o
LOAD /tmp/cceYM7fg.o
LOAD /tmp/ccL1hLXM.o
LOAD /tmp/cc53gwQj.o
LOAD /tmp/cchSQZUQ.o
LOAD /tmp/cciMG7ao.o
LOAD /tmp/cc2xa1DV.o
LOAD /tmp/ccMB6Qmt.o
LOAD /tmp/ccx2ufi1.o
LOAD /tmp/ccwKmPBz.o
LOAD /tmp/cc6S6jc8.o
START GROUP
LOAD /usr/bin/../lib/gcc/arm-none-eabi/6.3.1/thumb/v7e-m/fpv4-sp/hard/libgcc.a
LOAD /usr/bin/../lib/gcc/arm-none-eabi/6.3.1/../../../../arm-none-eabi/lib/thumb/v7e-m/fpv4-sp/hard/libg.a
LOAD /usr/bin/../lib/gcc/arm-none-eabi/6.3.1/../../../../arm-none-eabi/lib/thumb/v7e-m/fpv4-sp/hard/libc.a
END GROUP
START GROUP
LOAD /usr/bin/../lib/gcc/arm-none-eabi/6.3.1/thumb/v7e-m/fpv4-sp/hard/libgcc.a
LOAD /usr/bin/../lib/gcc/arm-none-eabi/6.3.1/../../../../arm-none-eabi/lib/thumb/v7e-m/fpv4-sp/hard/libc.a
LOAD /usr/bin/../lib/gcc/arm-none-eabi/6.3.1/../../../../arm-none-eabi/lib/thumb/v7e-m/fpv4-sp/hard/libnosys.a
END GROUP
LOAD /usr/bin/../lib/gcc/arm-none-eabi/6.3.1/thumb/v7e-m/fpv4-sp/hard/crtend.o
LOAD /usr/bin/../lib/gcc/arm-none-eabi/6.3.1/thumb/v7e-m/fpv4-sp/hard/crtn.o

.isr_vector     0x0000000008000000      0x188
 *(.isr_vector)
 .isr_vector    0x0000000008000000      0x188 /tmp/ccL1hLXM.o
                0x0000000008000000                g_pfnVectors
                0x0000000008000188                . = ALIGN (0x4)

.eh_frame       0x0000000008000188        0x4
 .eh_frame      0x0000000008000188        0x0 /usr/bin/../lib/gcc/arm-none-eabi/6.3.1/thumb/v7e-m/fpv4-sp/hard/crtbegin.o
 .eh_frame      0x0000000008000188        0x4 /usr/bin/../lib/gcc/arm-none-eabi/6.3.1/thumb/v7e-m/fpv4-sp/hard/crtend.o

.ARM.extab      0x000000000800018c        0x0
 .ARM.extab     0x000000000800018c        0x0 /usr/bin/../lib/gcc/arm-none-eabi/6.3.1/../../../../arm-none-eabi/lib/thumb/v7e-m/fpv4-sp/hard/crt0.o

.ARM.exidx      0x000000000800018c        0x8
 .ARM.exidx     0x000000000800018c        0x8 /usr/bin/../lib/gcc/arm-none-eabi/6.3.1/../../../../arm-none-eabi/lib/thumb/v7e-m/fpv4-sp/hard/crt0.o

.text           0x0000000008000194     0x4874
 *(.vectors)
 *(.text*)
 .text          0x0000000008000194        0x0 /usr/bin/../lib/gcc/arm-none-eabi/6.3.1/thumb/v7e-m/fpv4-sp/hard/crti.o
 .text          0x0000000008000194       0x6c /usr/bin/../lib/gcc/arm-none-eabi/6.3.1/thumb/v7e-m/fpv4-sp/hard/crtbegin.o
 .text          0x0000000008000200       0x74 /usr/bin/../lib/gcc/arm-none-eabi/6.3.1/../../../../arm-none-eabi/lib/thumb/v7e-m/fpv4-sp/hard/crt0.o
                0x0000000008000200                _mainCRTStartup
                0x0000000008000200                _start
 .text          0x0000000008000274      0x16c /tmp/cc0T58kD.o
                0x0000000008000274                motor_init
                0x0000000008000334                motor_commutate
                0x00000000080003c8                motor_set_speed
 .text          0x00000000080003e0        0xe /tmp/cc9mXTT8.o
                0x00000000080003e0                uart_init
 *fill*         0x00000000080003ee        0x2 
 .text          0x00000000080003f0       0xcc /tmp/ccok8UDE.o
                0x0000000008000488                main
 .text          0x00000000080004bc       0x3c /tmp/ccEbu1za.o
                0x00000000080004bc                delay
 .text          0x00000000080004f8       0x8c /tmp/ccgHGxIG.o
                0x00000000080004f8                NMI_Handler
                0x0000000008000506                HardFault_Handler
                0x000000000800050c                MemManage_Handler
                0x0000000008000512                BusFault_Handler
                0x0000000008000518                UsageFault_Handler
                0x000000000800051e                SVC_Handler
                0x000000000800052c                DebugMon_Handler
                0x000000000800053a                PendSV_Handler
                0x0000000008000548                SysTick_Handler
                0x000000000800056c                get_time
 .text          0x0000000008000584      0x128 /tmp/ccP6kk3c.o
                0x0000000008000584                hall_init
                0x0000000008000654                EXTI15_10_IRQHandler
                0x000000000800069c                hall_get_speed
 .text          0x00000000080006ac      0x25c /tmp/cc7i0lzJ.o
                0x00000000080006ac                SystemInit
                0x0000000008000718                SystemCoreClockUpdate
 .text          0x0000000008000908       0x3c /tmp/cceYM7fg.o
                0x0000000008000908                board_led_init
 .text          0x0000000008000944       0x14 /tmp/ccL1hLXM.o
 .text.Reset_Handler
                0x0000000008000958       0x48 /tmp/ccL1hLXM.o
                0x0000000008000958                Reset_Handler
 .text.Default_Handler
                0x00000000080009a0        0x2 /tmp/ccL1hLXM.o
                0x00000000080009a0                RTC_Alarm_IRQHandler
                0x00000000080009a0                HASH_RNG_IRQHandler
                0x00000000080009a0                EXTI2_IRQHandler
                0x00000000080009a0                TIM8_CC_IRQHandler
                0x00000000080009a0                TIM1_CC_IRQHandler
                0x00000000080009a0                DMA2_Stream5_IRQHandler
                0x00000000080009a0                DMA1_Stream5_IRQHandler
                0x00000000080009a0                PVD_IRQHandler
                0x00000000080009a0                SDIO_IRQHandler
                0x00000000080009a0                TAMP_STAMP_IRQHandler
                0x00000000080009a0                CAN2_RX1_IRQHandler
                0x00000000080009a0                EXTI3_IRQHandler
                0x00000000080009a0                TIM8_TRG_COM_TIM14_IRQHandler
                0x00000000080009a0                TIM1_UP_TIM10_IRQHandler
                0x00000000080009a0                TIM8_UP_TIM13_IRQHandler
                0x00000000080009a0                I2C3_ER_IRQHandler
                0x00000000080009a0                EXTI0_IRQHandler
                0x00000000080009a0                I2C2_EV_IRQHandler
                0x00000000080009a0                DMA1_Stream2_IRQHandler
                0x00000000080009a0                CAN1_RX0_IRQHandler
                0x00000000080009a0                FPU_IRQHandler
                0x00000000080009a0                OTG_HS_WKUP_IRQHandler
                0x00000000080009a0                CAN2_SCE_IRQHandler
                0x00000000080009a0                DMA2_Stream2_IRQHandler
                0x00000000080009a0                SPI1_IRQHandler
                0x00000000080009a0                TIM6_DAC_IRQHandler
                0x00000000080009a0                TIM1_BRK_TIM9_IRQHandler
                0x00000000080009a0                DCMI_IRQHandler
                0x00000000080009a0                CAN2_RX0_IRQHandler
                0x00000000080009a0                DMA2_Stream3_IRQHandler
                0x00000000080009a0                USART6_IRQHandler
                0x00000000080009a0                USART3_IRQHandler
                0x00000000080009a0                CRYP_IRQHandler
                0x00000000080009a0                CAN1_RX1_IRQHandler
                0x00000000080009a0                UART5_IRQHandler
                0x00000000080009a0                DMA2_Stream0_IRQHandler
                0x00000000080009a0                TIM4_IRQHandler
                0x00000000080009a0                I2C1_EV_IRQHandler
                0x00000000080009a0                DMA1_Stream6_IRQHandler
                0x00000000080009a0                DMA1_Stream1_IRQHandler
                0x00000000080009a0                UART4_IRQHandler
                0x00000000080009a0                TIM3_IRQHandler
                0x00000000080009a0                RCC_IRQHandler
                0x00000000080009a0                TIM8_BRK_TIM12_IRQHandler
                0x00000000080009a0                Default_Handler
                0x00000000080009a0                ADC_IRQHandler
                0x00000000080009a0                DMA1_Stream7_IRQHandler
                0x00000000080009a0                TIM7_IRQHandler
                0x00000000080009a0                CAN2_TX_IRQHandler
                0x00000000080009a0                TIM5_IRQHandler
                0x00000000080009a0                DMA2_Stream7_IRQHandler
                0x00000000080009a0                I2C3_EV_IRQHandler
                0x00000000080009a0                EXTI9_5_IRQHandler
                0x00000000080009a0                RTC_WKUP_IRQHandler
                0x00000000080009a0                ETH_WKUP_IRQHandler
                0x00000000080009a0                SPI2_IRQHandler
                0x00000000080009a0                OTG_HS_EP1_IN_IRQHandler
                0x00000000080009a0                DMA1_Stream0_IRQHandler
                0x00000000080009a0                CAN1_TX_IRQHandler
                0x00000000080009a0                EXTI4_IRQHandler
                0x00000000080009a0                FSMC_IRQHandler
                0x00000000080009a0                ETH_IRQHandler
                0x00000000080009a0                OTG_HS_EP1_OUT_IRQHandler
                0x00000000080009a0                WWDG_IRQHandler
                0x00000000080009a0                TIM2_IRQHandler
                0x00000000080009a0                OTG_FS_WKUP_IRQHandler
                0x00000000080009a0                TIM1_TRG_COM_TIM11_IRQHandler
                0x00000000080009a0                OTG_HS_IRQHandler
                0x00000000080009a0                EXTI1_IRQHandler
                0x00000000080009a0                USART2_IRQHandler
                0x00000000080009a0                I2C2_ER_IRQHandler
                0x00000000080009a0                DMA2_Stream1_IRQHandler
                0x00000000080009a0                CAN1_SCE_IRQHandler
                0x00000000080009a0                FLASH_IRQHandler
                0x00000000080009a0                DMA2_Stream4_IRQHandler
                0x00000000080009a0                USART1_IRQHandler
                0x00000000080009a0                OTG_FS_IRQHandler
                0x00000000080009a0                SPI3_IRQHandler
                0x00000000080009a0                DMA1_Stream4_IRQHandler
                0x00000000080009a0                I2C1_ER_IRQHandler
                0x00000000080009a0                DMA2_Stream6_IRQHandler
                0x00000000080009a0                DMA1_Stream3_IRQHandler
 *fill*         0x00000000080009a2        0x2 
 .text          0x00000000080009a4      0x194 /tmp/cc53gwQj.o
                0x00000000080009a4                NVIC_PriorityGroupConfig
                0x00000000080009cc                NVIC_Init
                0x0000000008000a90                NVIC_SetVectorTable
                0x0000000008000abc                NVIC_SystemLPConfig
                0x0000000008000b00                SysTick_CLKSourceConfig
 .text          0x0000000008000b38       0xf4 /tmp/cchSQZUQ.o
                0x0000000008000b38                DBGMCU_GetREVID
                0x0000000008000b50                DBGMCU_GetDEVID
                0x0000000008000b6c                DBGMCU_Config
                0x0000000008000bac                DBGMCU_APB1PeriphConfig
                0x0000000008000bec                DBGMCU_APB2PeriphConfig
 .text          0x0000000008000c2c      0x210 /tmp/cciMG7ao.o
                0x0000000008000c2c                EXTI_DeInit
                0x0000000008000c60                EXTI_Init
                0x0000000008000d44                EXTI_StructInit
                0x0000000008000d70                EXTI_GenerateSWInterrupt
                0x0000000008000d94                EXTI_GetFlagStatus
                0x0000000008000dc8                EXTI_ClearFlag
                0x0000000008000de8                EXTI_GetITStatus
                0x0000000008000e1c                EXTI_ClearITPendingBit
 .text          0x0000000008000e3c      0x4d4 /tmp/cc2xa1DV.o
                0x0000000008000e3c                GPIO_DeInit
                0x0000000008000fa0                GPIO_Init
                0x00000000080010bc                GPIO_StructInit
                0x00000000080010f0                GPIO_PinLockConfig
                0x0000000008001134                GPIO_ReadInputDataBit
                0x0000000008001168                GPIO_ReadInputData
                0x0000000008001182                GPIO_ReadOutputDataBit
                0x00000000080011b6                GPIO_ReadOutputData
                0x00000000080011d0                GPIO_SetBits
                0x00000000080011ee                GPIO_ResetBits
                0x000000000800120c                GPIO_WriteBit
                0x000000000800123c                GPIO_Write
                0x000000000800125a                GPIO_ToggleBits
                0x000000000800127e                GPIO_PinAFConfig
 .text          0x0000000008001310      0xce0 /tmp/ccMB6Qmt.o
                0x0000000008001310                RCC_DeInit
                0x0000000008001380                RCC_HSEConfig
                0x00000000080013a8                RCC_WaitForHSEStartUp
                0x00000000080013f8                RCC_AdjustHSICalibrationValue
                0x0000000008001434                RCC_HSICmd
                0x0000000008001454                RCC_LSEConfig
                0x0000000008001498                RCC_LSICmd
                0x00000000080014b8                RCC_PLLConfig
                0x00000000080014f8                RCC_PLLCmd
                0x0000000008001518                RCC_PLLI2SConfig
                0x0000000008001544                RCC_PLLI2SCmd
                0x0000000008001564                RCC_PLLSAIConfig
                0x0000000008001598                RCC_PLLSAICmd
                0x00000000080015b8                RCC_ClockSecuritySystemCmd
                0x00000000080015d8                RCC_MCO1Config
                0x0000000008001618                RCC_MCO2Config
                0x0000000008001658                RCC_SYSCLKConfig
                0x0000000008001690                RCC_GetSYSCLKSource
                0x00000000080016b0                RCC_HCLKConfig
                0x00000000080016e8                RCC_PCLK1Config
                0x0000000008001720                RCC_PCLK2Config
                0x000000000800175c                RCC_GetClocksFreq
                0x00000000080018ac                RCC_RTCCLKConfig
                0x0000000008001908                RCC_RTCCLKCmd
                0x0000000008001928                RCC_BackupResetCmd
                0x0000000008001948                RCC_I2SCLKConfig
                0x0000000008001968                RCC_SAIBlockACLKConfig
                0x00000000080019a4                RCC_SAIBlockBCLKConfig
                0x00000000080019e0                RCC_SAIPLLI2SClkDivConfig
                0x0000000008001a20                RCC_SAIPLLSAIClkDivConfig
                0x0000000008001a60                RCC_LTDCCLKDivConfig
                0x0000000008001a9c                RCC_TIMCLKPresConfig
                0x0000000008001abc                RCC_AHB1PeriphClockCmd
                0x0000000008001afc                RCC_AHB2PeriphClockCmd
                0x0000000008001b3c                RCC_AHB3PeriphClockCmd
                0x0000000008001b7c                RCC_APB1PeriphClockCmd
                0x0000000008001bbc                RCC_APB2PeriphClockCmd
                0x0000000008001bfc                RCC_AHB1PeriphResetCmd
                0x0000000008001c3c                RCC_AHB2PeriphResetCmd
                0x0000000008001c7c                RCC_AHB3PeriphResetCmd
                0x0000000008001cbc                RCC_APB1PeriphResetCmd
                0x0000000008001cfc                RCC_APB2PeriphResetCmd
                0x0000000008001d3c                RCC_AHB1PeriphClockLPModeCmd
                0x0000000008001d7c                RCC_AHB2PeriphClockLPModeCmd
                0x0000000008001dbc                RCC_AHB3PeriphClockLPModeCmd
                0x0000000008001dfc                RCC_APB1PeriphClockLPModeCmd
                0x0000000008001e3c                RCC_APB2PeriphClockLPModeCmd
                0x0000000008001e7c                RCC_LSEModeConfig
                0x0000000008001eb8                RCC_ITConfig
                0x0000000008001f04                RCC_GetFlagStatus
                0x0000000008001f78                RCC_ClearFlag
                0x0000000008001f98                RCC_GetITStatus
                0x0000000008001fd0                RCC_ClearITPendingBit
 .text          0x0000000008001ff0      0x154 /tmp/ccx2ufi1.o
                0x0000000008001ff0                SYSCFG_DeInit
                0x000000000800200c                SYSCFG_MemoryRemapConfig
                0x000000000800202c                SYSCFG_MemorySwappingBank
                0x000000000800204c                SYSCFG_EXTILineConfig
                0x00000000080020d0                SYSCFG_ETH_MediaInterfaceConfig
                0x00000000080020f0                SYSCFG_CompensationCellCmd
                0x0000000008002110                SYSCFG_GetCompensationCellStatus
 .text          0x0000000008002144     0x1c18 /tmp/ccwKmPBz.o
                0x0000000008002144                TIM_DeInit
                0x0000000008002304                TIM_TimeBaseInit
                0x00000000080023dc                TIM_TimeBaseStructInit
                0x0000000008002410                TIM_PrescalerConfig
                0x0000000008002438                TIM_CounterModeConfig
                0x0000000008002470                TIM_SetCounter
                0x000000000800248c                TIM_SetAutoreload
                0x00000000080024a8                TIM_GetCounter
                0x00000000080024c0                TIM_GetPrescaler
                0x00000000080024da                TIM_UpdateDisableConfig
                0x000000000800251a                TIM_UpdateRequestConfig
                0x000000000800255a                TIM_ARRPreloadConfig
                0x000000000800259a                TIM_SelectOnePulseMode
                0x00000000080025d2                TIM_SetClockDivision
                0x000000000800260a                TIM_Cmd
                0x000000000800264a                TIM_OC1Init
                0x0000000008002740                TIM_OC2Init
                0x0000000008002850                TIM_OC3Init
                0x000000000800295c                TIM_OC4Init
                0x0000000008002a2c                TIM_OCStructInit
                0x0000000008002a70                TIM_SelectOCxM
                0x0000000008002b22                TIM_SetCompare1
                0x0000000008002b3e                TIM_SetCompare2
                0x0000000008002b5a                TIM_SetCompare3
                0x0000000008002b76                TIM_SetCompare4
                0x0000000008002b92                TIM_ForcedOC1Config
                0x0000000008002bca                TIM_ForcedOC2Config
                0x0000000008002c06                TIM_ForcedOC3Config
                0x0000000008002c3e                TIM_ForcedOC4Config
                0x0000000008002c7a                TIM_OC1PreloadConfig
                0x0000000008002cb2                TIM_OC2PreloadConfig
                0x0000000008002cee                TIM_OC3PreloadConfig
                0x0000000008002d26                TIM_OC4PreloadConfig
                0x0000000008002d62                TIM_OC1FastConfig
                0x0000000008002d9a                TIM_OC2FastConfig
                0x0000000008002dd6                TIM_OC3FastConfig
                0x0000000008002e0e                TIM_OC4FastConfig
                0x0000000008002e4a                TIM_ClearOC1Ref
                0x0000000008002e82                TIM_ClearOC2Ref
                0x0000000008002ebe                TIM_ClearOC3Ref
                0x0000000008002ef6                TIM_ClearOC4Ref
                0x0000000008002f32                TIM_OC1PolarityConfig
                0x0000000008002f6a                TIM_OC1NPolarityConfig
                0x0000000008002fa2                TIM_OC2PolarityConfig
                0x0000000008002fde                TIM_OC2NPolarityConfig
                0x000000000800301a                TIM_OC3PolarityConfig
                0x0000000008003056                TIM_OC3NPolarityConfig
                0x0000000008003092                TIM_OC4PolarityConfig
                0x00000000080030ce                TIM_CCxCmd
                0x0000000008003124                TIM_CCxNCmd
                0x000000000800317a                TIM_ICInit
                0x0000000008003222                TIM_ICStructInit
                0x0000000008003254                TIM_PWMIConfig
                0x000000000800330c                TIM_GetCapture1
                0x0000000008003324                TIM_GetCapture2
                0x000000000800333c                TIM_GetCapture3
                0x0000000008003354                TIM_GetCapture4
                0x000000000800336c                TIM_SetIC1Prescaler
                0x00000000080033a4                TIM_SetIC2Prescaler
                0x00000000080033e0                TIM_SetIC3Prescaler
                0x0000000008003418                TIM_SetIC4Prescaler
                0x0000000008003454                TIM_BDTRConfig
                0x00000000080034a4                TIM_BDTRStructInit
                0x00000000080034e2                TIM_CtrlPWMOutputs
                0x000000000800352e                TIM_SelectCOM
                0x000000000800356e                TIM_CCPreloadControl
                0x00000000080035ae                TIM_ITConfig
                0x00000000080035f6                TIM_GenerateEvent
                0x0000000008003614                TIM_GetFlagStatus
                0x000000000800364c                TIM_ClearFlag
                0x000000000800366e                TIM_GetITStatus
                0x00000000080036c2                TIM_ClearITPendingBit
                0x00000000080036e4                TIM_DMAConfig
                0x000000000800370e                TIM_DMACmd
                0x0000000008003756                TIM_SelectCCDMA
                0x0000000008003796                TIM_InternalClockConfig
                0x00000000080037ba                TIM_ITRxExternalClockConfig
                0x00000000080037e8                TIM_TIxExternalClockConfig
                0x0000000008003844                TIM_ETRClockMode1Config
                0x00000000080038a2                TIM_ETRClockMode2Config
                0x00000000080038e0                TIM_SelectInputTrigger
                0x0000000008003918                TIM_SelectOutputTrigger
                0x0000000008003950                TIM_SelectSlaveMode
                0x0000000008003988                TIM_SelectMasterSlaveMode
                0x00000000080039c0                TIM_ETRConfig
                0x0000000008003a14                TIM_EncoderInterfaceConfig
                0x0000000008003aac                TIM_SelectHallSensor
                0x0000000008003aec                TIM_RemapConfig
 .text          0x0000000008003d5c      0x970 /tmp/cc6S6jc8.o
                0x0000000008003d5c                USART_DeInit
                0x0000000008003e74                USART_Init
                0x0000000008003fe8                USART_StructInit
                0x0000000008004022                USART_ClockInit
                0x0000000008004078                USART_ClockStructInit
                0x00000000080040a4                USART_Cmd
                0x00000000080040e4                USART_SetPrescaler
                0x000000000800411e                USART_OverSampling8Cmd
                0x0000000008004162                USART_OneBitMethodCmd
                0x00000000080041a2                USART_SendData
                0x00000000080041c6                USART_ReceiveData
                0x00000000080041e6                USART_SetAddress
                0x0000000008004220                USART_ReceiverWakeUpCmd
                0x0000000008004260                USART_WakeUpConfig
                0x0000000008004298                USART_LINBreakDetectLengthConfig
                0x00000000080042d0                USART_LINCmd
                0x0000000008004310                USART_SendBreak
                0x0000000008004334                USART_HalfDuplexCmd
                0x0000000008004374                USART_SetGuardTime
                0x00000000080043b0                USART_SmartCardCmd
                0x00000000080043f0                USART_SmartCardNACKCmd
                0x0000000008004430                USART_IrDAConfig
                0x0000000008004468                USART_IrDACmd
                0x00000000080044a8                USART_DMACmd
                0x00000000080044f0                USART_ITConfig
                0x0000000008004580                USART_GetFlagStatus
                0x00000000080045b8                USART_ClearFlag
                0x00000000080045da                USART_GetITStatus
                0x0000000008004690                USART_ClearITPendingBit
 .text          0x00000000080046cc        0x0 /usr/bin/../lib/gcc/arm-none-eabi/6.3.1/../../../../arm-none-eabi/lib/thumb/v7e-m/fpv4-sp/hard/libg.a(lib_a-exit.o)
 .text.exit     0x00000000080046cc       0x20 /usr/bin/../lib/gcc/arm-none-eabi/6.3.1/../../../../arm-none-eabi/lib/thumb/v7e-m/fpv4-sp/hard/libg.a(lib_a-exit.o)
                0x00000000080046cc                exit
 .text          0x00000000080046ec        0x0 /usr/bin/../lib/gcc/arm-none-eabi/6.3.1/../../../../arm-none-eabi/lib/thumb/v7e-m/fpv4-sp/hard/libg.a(lib_a-impure.o)
 .text          0x00000000080046ec        0x0 /usr/bin/../lib/gcc/arm-none-eabi/6.3.1/../../../../arm-none-eabi/lib/thumb/v7e-m/fpv4-sp/hard/libg.a(lib_a-init.o)
 .text.__libc_init_array
                0x00000000080046ec       0x50 /usr/bin/../lib/gcc/arm-none-eabi/6.3.1/../../../../arm-none-eabi/lib/thumb/v7e-m/fpv4-sp/hard/libg.a(lib_a-init.o)
                0x00000000080046ec                __libc_init_array
 .text          0x000000000800473c        0x0 /usr/bin/../lib/gcc/arm-none-eabi/6.3.1/../../../../arm-none-eabi/lib/thumb/v7e-m/fpv4-sp/hard/libg.a(lib_a-memset.o)
 .text.memset   0x000000000800473c       0x9c /usr/bin/../lib/gcc/arm-none-eabi/6.3.1/../../../../arm-none-eabi/lib/thumb/v7e-m/fpv4-sp/hard/libg.a(lib_a-memset.o)
                0x000000000800473c                memset
 .text          0x00000000080047d8        0x0 /usr/bin/../lib/gcc/arm-none-eabi/6.3.1/../../../../arm-none-eabi/lib/thumb/v7e-m/fpv4-sp/hard/libg.a(lib_a-__call_atexit.o)
 .text.startup.register_fini
                0x00000000080047d8       0x14 /usr/bin/../lib/gcc/arm-none-eabi/6.3.1/../../../../arm-none-eabi/lib/thumb/v7e-m/fpv4-sp/hard/libg.a(lib_a-__call_atexit.o)
 .text.__call_exitprocs
                0x00000000080047ec       0xe8 /usr/bin/../lib/gcc/arm-none-eabi/6.3.1/../../../../arm-none-eabi/lib/thumb/v7e-m/fpv4-sp/hard/libg.a(lib_a-__call_atexit.o)
                0x00000000080047ec                __call_exitprocs
 .text          0x00000000080048d4        0x0 /usr/bin/../lib/gcc/arm-none-eabi/6.3.1/../../../../arm-none-eabi/lib/thumb/v7e-m/fpv4-sp/hard/libg.a(lib_a-atexit.o)
 .text.atexit   0x00000000080048d4        0xc /usr/bin/../lib/gcc/arm-none-eabi/6.3.1/../../../../arm-none-eabi/lib/thumb/v7e-m/fpv4-sp/hard/libg.a(lib_a-atexit.o)
                0x00000000080048d4                atexit
 .text          0x00000000080048e0        0x0 /usr/bin/../lib/gcc/arm-none-eabi/6.3.1/../../../../arm-none-eabi/lib/thumb/v7e-m/fpv4-sp/hard/libg.a(lib_a-fini.o)
 .text.__libc_fini_array
                0x00000000080048e0       0x34 /usr/bin/../lib/gcc/arm-none-eabi/6.3.1/../../../../arm-none-eabi/lib/thumb/v7e-m/fpv4-sp/hard/libg.a(lib_a-fini.o)
                0x00000000080048e0                __libc_fini_array
 .text          0x0000000008004914        0x0 /usr/bin/../lib/gcc/arm-none-eabi/6.3.1/../../../../arm-none-eabi/lib/thumb/v7e-m/fpv4-sp/hard/libg.a(lib_a-lock.o)
 .text.__retarget_lock_init
                0x0000000008004914        0x4 /usr/bin/../lib/gcc/arm-none-eabi/6.3.1/../../../../arm-none-eabi/lib/thumb/v7e-m/fpv4-sp/hard/libg.a(lib_a-lock.o)
                0x0000000008004914                __retarget_lock_init
 .text.__retarget_lock_init_recursive
                0x0000000008004918        0x4 /usr/bin/../lib/gcc/arm-none-eabi/6.3.1/../../../../arm-none-eabi/lib/thumb/v7e-m/fpv4-sp/hard/libg.a(lib_a-lock.o)
                0x0000000008004918                __retarget_lock_init_recursive
 .text.__retarget_lock_close
                0x000000000800491c        0x4 /usr/bin/../lib/gcc/arm-none-eabi/6.3.1/../../../../arm-none-eabi/lib/thumb/v7e-m/fpv4-sp/hard/libg.a(lib_a-lock.o)
                0x000000000800491c                __retarget_lock_close
 .text.__retarget_lock_close_recursive
                0x0000000008004920        0x4 /usr/bin/../lib/gcc/arm-none-eabi/6.3.1/../../../../arm-none-eabi/lib/thumb/v7e-m/fpv4-sp/hard/libg.a(lib_a-lock.o)
                0x0000000008004920                __retarget_lock_close_recursive
 .text.__retarget_lock_acquire
                0x0000000008004924        0x4 /usr/bin/../lib/gcc/arm-none-eabi/6.3.1/../../../../arm-none-eabi/lib/thumb/v7e-m/fpv4-sp/hard/libg.a(lib_a-lock.o)
                0x0000000008004924                __retarget_lock_acquire
 .text.__retarget_lock_acquire_recursive
                0x0000000008004928        0x4 /usr/bin/../lib/gcc/arm-none-eabi/6.3.1/../../../../arm-none-eabi/lib/thumb/v7e-m/fpv4-sp/hard/libg.a(lib_a-lock.o)
                0x0000000008004928                __retarget_lock_acquire_recursive
 .text.__retarget_lock_try_acquire
                0x000000000800492c        0x4 /usr/bin/../lib/gcc/arm-none-eabi/6.3.1/../../../../arm-none-eabi/lib/thumb/v7e-m/fpv4-sp/hard/libg.a(lib_a-lock.o)
                0x000000000800492c                __retarget_lock_try_acquire
 .text.__retarget_lock_try_acquire_recursive
                0x0000000008004930        0x4 /usr/bin/../lib/gcc/arm-none-eabi/6.3.1/../../../../arm-none-eabi/lib/thumb/v7e-m/fpv4-sp/hard/libg.a(lib_a-lock.o)
                0x0000000008004930                __retarget_lock_try_acquire_recursive
 .text.__retarget_lock_release
                0x0000000008004934        0x4 /usr/bin/../lib/gcc/arm-none-eabi/6.3.1/../../../../arm-none-eabi/lib/thumb/v7e-m/fpv4-sp/hard/libg.a(lib_a-lock.o)
                0x0000000008004934                __retarget_lock_release
 .text.__retarget_lock_release_recursive
                0x0000000008004938        0x4 /usr/bin/../lib/gcc/arm-none-eabi/6.3.1/../../../../arm-none-eabi/lib/thumb/v7e-m/fpv4-sp/hard/libg.a(lib_a-lock.o)
                0x0000000008004938                __retarget_lock_release_recursive
 .text          0x000000000800493c        0x0 /usr/bin/../lib/gcc/arm-none-eabi/6.3.1/../../../../arm-none-eabi/lib/thumb/v7e-m/fpv4-sp/hard/libg.a(lib_a-__atexit.o)
 .text.__register_exitproc
                0x000000000800493c       0xc4 /usr/bin/../lib/gcc/arm-none-eabi/6.3.1/../../../../arm-none-eabi/lib/thumb/v7e-m/fpv4-sp/hard/libg.a(lib_a-__atexit.o)
                0x000000000800493c                __register_exitproc
 .text          0x0000000008004a00        0x0 /usr/bin/../lib/gcc/arm-none-eabi/6.3.1/../../../../arm-none-eabi/lib/thumb/v7e-m/fpv4-sp/hard/libnosys.a(_exit.o)
 .text._exit    0x0000000008004a00        0x4 /usr/bin/../lib/gcc/arm-none-eabi/6.3.1/../../../../arm-none-eabi/lib/thumb/v7e-m/fpv4-sp/hard/libnosys.a(_exit.o)
                0x0000000008004a00                _exit
 .text          0x0000000008004a04        0x0 /usr/bin/../lib/gcc/arm-none-eabi/6.3.1/thumb/v7e-m/fpv4-sp/hard/crtend.o
 .text          0x0000000008004a04        0x0 /usr/bin/../lib/gcc/arm-none-eabi/6.3.1/thumb/v7e-m/fpv4-sp/hard/crtn.o
                0x0000000008004a04                . = ALIGN (0x4)
 *(.rodata*)
 .rodata._global_impure_ptr
                0x0000000008004a04        0x4 /usr/bin/../lib/gcc/arm-none-eabi/6.3.1/../../../../arm-none-eabi/lib/thumb/v7e-m/fpv4-sp/hard/libg.a(lib_a-impure.o)
                0x0000000008004a04                _global_impure_ptr
                0x0000000008004a08                . = ALIGN (0x4)

.glue_7         0x0000000008004a08        0x0
 .glue_7        0x0000000008004a08        0x0 linker stubs

.glue_7t        0x0000000008004a08        0x0
 .glue_7t       0x0000000008004a08        0x0 linker stubs

.vfp11_veneer   0x0000000008004a08        0x0
 .vfp11_veneer  0x0000000008004a08        0x0 linker stubs

.v4_bx          0x0000000008004a08        0x0
 .v4_bx         0x0000000008004a08        0x0 linker stubs

.init           0x0000000008004a08        0xc
 .init          0x0000000008004a08        0x4 /usr/bin/../lib/gcc/arm-none-eabi/6.3.1/thumb/v7e-m/fpv4-sp/hard/crti.o
                0x0000000008004a08                _init
 .init          0x0000000008004a0c        0x8 /usr/bin/../lib/gcc/arm-none-eabi/6.3.1/thumb/v7e-m/fpv4-sp/hard/crtn.o

.fini           0x0000000008004a14        0xc
 .fini          0x0000000008004a14        0x4 /usr/bin/../lib/gcc/arm-none-eabi/6.3.1/thumb/v7e-m/fpv4-sp/hard/crti.o
                0x0000000008004a14                _fini
 .fini          0x0000000008004a18        0x8 /usr/bin/../lib/gcc/arm-none-eabi/6.3.1/thumb/v7e-m/fpv4-sp/hard/crtn.o

.iplt           0x0000000008004a20        0x0
 .iplt          0x0000000008004a20        0x0 /usr/bin/../lib/gcc/arm-none-eabi/6.3.1/thumb/v7e-m/fpv4-sp/hard/crtbegin.o

.rel.dyn        0x0000000008004a20        0x0
 .rel.iplt      0x0000000008004a20        0x0 /usr/bin/../lib/gcc/arm-none-eabi/6.3.1/thumb/v7e-m/fpv4-sp/hard/crtbegin.o
                0x0000000008004a20                . = ALIGN (0x4)
                0x0000000008004a20                _etext = .

.data           0x0000000020000000      0x48c load address 0x0000000008004a20
                0x0000000020000000                _sdata = .
 *(.data*)
 .data          0x0000000020000000        0x0 /usr/bin/../lib/gcc/arm-none-eabi/6.3.1/thumb/v7e-m/fpv4-sp/hard/crti.o
 .data          0x0000000020000000        0x4 /usr/bin/../lib/gcc/arm-none-eabi/6.3.1/thumb/v7e-m/fpv4-sp/hard/crtbegin.o
                0x0000000020000000                __dso_handle
 .data          0x0000000020000004        0x0 /usr/bin/../lib/gcc/arm-none-eabi/6.3.1/../../../../arm-none-eabi/lib/thumb/v7e-m/fpv4-sp/hard/crt0.o
 .data          0x0000000020000004       0x30 /tmp/cc0T58kD.o
                0x0000000020000004                en_states
                0x000000002000001c                in_states
 .data          0x0000000020000034        0x0 /tmp/cc9mXTT8.o
 .data          0x0000000020000034        0x0 /tmp/ccok8UDE.o
 .data          0x0000000020000034        0x0 /tmp/ccEbu1za.o
 .data          0x0000000020000034        0x0 /tmp/ccgHGxIG.o
 .data          0x0000000020000034        0x0 /tmp/ccP6kk3c.o
 .data          0x0000000020000034       0x14 /tmp/cc7i0lzJ.o
                0x0000000020000034                SystemCoreClock
                0x0000000020000038                AHBPrescTable
 .data          0x0000000020000048        0x0 /tmp/cceYM7fg.o
 .data          0x0000000020000048        0x0 /tmp/ccL1hLXM.o
 .data          0x0000000020000048        0x0 /tmp/cc53gwQj.o
 .data          0x0000000020000048        0x0 /tmp/cchSQZUQ.o
 .data          0x0000000020000048        0x0 /tmp/cciMG7ao.o
 .data          0x0000000020000048        0x0 /tmp/cc2xa1DV.o
 .data          0x0000000020000048       0x10 /tmp/ccMB6Qmt.o
 .data          0x0000000020000058        0x0 /tmp/ccx2ufi1.o
 .data          0x0000000020000058        0x0 /tmp/ccwKmPBz.o
 .data          0x0000000020000058        0x0 /tmp/cc6S6jc8.o
 .data          0x0000000020000058        0x0 /usr/bin/../lib/gcc/arm-none-eabi/6.3.1/../../../../arm-none-eabi/lib/thumb/v7e-m/fpv4-sp/hard/libg.a(lib_a-exit.o)
 .data          0x0000000020000058        0x0 /usr/bin/../lib/gcc/arm-none-eabi/6.3.1/../../../../arm-none-eabi/lib/thumb/v7e-m/fpv4-sp/hard/libg.a(lib_a-impure.o)
 .data._impure_ptr
                0x0000000020000058        0x4 /usr/bin/../lib/gcc/arm-none-eabi/6.3.1/../../../../arm-none-eabi/lib/thumb/v7e-m/fpv4-sp/hard/libg.a(lib_a-impure.o)
                0x0000000020000058                _impure_ptr
 *fill*         0x000000002000005c        0x4 
 .data.impure_data
                0x0000000020000060      0x428 /usr/bin/../lib/gcc/arm-none-eabi/6.3.1/../../../../arm-none-eabi/lib/thumb/v7e-m/fpv4-sp/hard/libg.a(lib_a-impure.o)
 .data          0x0000000020000488        0x0 /usr/bin/../lib/gcc/arm-none-eabi/6.3.1/../../../../arm-none-eabi/lib/thumb/v7e-m/fpv4-sp/hard/libg.a(lib_a-init.o)
 .data          0x0000000020000488        0x0 /usr/bin/../lib/gcc/arm-none-eabi/6.3.1/../../../../arm-none-eabi/lib/thumb/v7e-m/fpv4-sp/hard/libg.a(lib_a-memset.o)
 .data          0x0000000020000488        0x0 /usr/bin/../lib/gcc/arm-none-eabi/6.3.1/../../../../arm-none-eabi/lib/thumb/v7e-m/fpv4-sp/hard/libg.a(lib_a-__call_atexit.o)
 .data.__atexit_recursive_mutex
                0x0000000020000488        0x4 /usr/bin/../lib/gcc/arm-none-eabi/6.3.1/../../../../arm-none-eabi/lib/thumb/v7e-m/fpv4-sp/hard/libg.a(lib_a-__call_atexit.o)
                0x0000000020000488                __atexit_recursive_mutex
 .data          0x000000002000048c        0x0 /usr/bin/../lib/gcc/arm-none-eabi/6.3.1/../../../../arm-none-eabi/lib/thumb/v7e-m/fpv4-sp/hard/libg.a(lib_a-atexit.o)
 .data          0x000000002000048c        0x0 /usr/bin/../lib/gcc/arm-none-eabi/6.3.1/../../../../arm-none-eabi/lib/thumb/v7e-m/fpv4-sp/hard/libg.a(lib_a-fini.o)
 .data          0x000000002000048c        0x0 /usr/bin/../lib/gcc/arm-none-eabi/6.3.1/../../../../arm-none-eabi/lib/thumb/v7e-m/fpv4-sp/hard/libg.a(lib_a-lock.o)
 .data          0x000000002000048c        0x0 /usr/bin/../lib/gcc/arm-none-eabi/6.3.1/../../../../arm-none-eabi/lib/thumb/v7e-m/fpv4-sp/hard/libg.a(lib_a-__atexit.o)
 .data          0x000000002000048c        0x0 /usr/bin/../lib/gcc/arm-none-eabi/6.3.1/../../../../arm-none-eabi/lib/thumb/v7e-m/fpv4-sp/hard/libnosys.a(_exit.o)
 .data          0x000000002000048c        0x0 /usr/bin/../lib/gcc/arm-none-eabi/6.3.1/thumb/v7e-m/fpv4-sp/hard/crtend.o
 .data          0x000000002000048c        0x0 /usr/bin/../lib/gcc/arm-none-eabi/6.3.1/thumb/v7e-m/fpv4-sp/hard/crtn.o
                0x000000002000048c                . = ALIGN (0x4)
                0x000000002000048c                _edata = .
                0x0000000008004a20                _sidata = LOADADDR (.data)

.init_array     0x000000002000048c        0x4 load address 0x0000000008004eac
 .init_array    0x000000002000048c        0x4 /usr/bin/../lib/gcc/arm-none-eabi/6.3.1/thumb/v7e-m/fpv4-sp/hard/crtbegin.o

.fini_array     0x0000000020000490        0x4 load address 0x0000000008004eb0
 .fini_array    0x0000000020000490        0x4 /usr/bin/../lib/gcc/arm-none-eabi/6.3.1/thumb/v7e-m/fpv4-sp/hard/crtbegin.o

.jcr            0x0000000020000494        0x4 load address 0x0000000008004eb4
 .jcr           0x0000000020000494        0x0 /usr/bin/../lib/gcc/arm-none-eabi/6.3.1/thumb/v7e-m/fpv4-sp/hard/crtbegin.o
 .jcr           0x0000000020000494        0x4 /usr/bin/../lib/gcc/arm-none-eabi/6.3.1/thumb/v7e-m/fpv4-sp/hard/crtend.o

.igot.plt       0x0000000020000498        0x0 load address 0x0000000008004eb8
 .igot.plt      0x0000000020000498        0x0 /usr/bin/../lib/gcc/arm-none-eabi/6.3.1/thumb/v7e-m/fpv4-sp/hard/crtbegin.o

.init_array.00000
                0x0000000020000498        0x4 load address 0x0000000008004eb8
 .init_array.00000
                0x0000000020000498        0x4 /usr/bin/../lib/gcc/arm-none-eabi/6.3.1/../../../../arm-none-eabi/lib/thumb/v7e-m/fpv4-sp/hard/libg.a(lib_a-__call_atexit.o)

.bss            0x00000000200004a0       0x4c load address 0x0000000008004ebc
                0x00000000200004a0                __bss_start__ = .
                0x00000000200004a0                _sbss = .
 *(.bss*)
 .bss           0x00000000200004a0        0x0 /usr/bin/../lib/gcc/arm-none-eabi/6.3.1/thumb/v7e-m/fpv4-sp/hard/crti.o
 .bss           0x00000000200004a0       0x1c /usr/bin/../lib/gcc/arm-none-eabi/6.3.1/thumb/v7e-m/fpv4-sp/hard/crtbegin.o
 .bss           0x00000000200004bc        0x0 /usr/bin/../lib/gcc/arm-none-eabi/6.3.1/../../../../arm-none-eabi/lib/thumb/v7e-m/fpv4-sp/hard/crt0.o
 .bss           0x00000000200004bc        0x0 /tmp/cc0T58kD.o
 .bss           0x00000000200004bc        0x0 /tmp/cc9mXTT8.o
 .bss           0x00000000200004bc        0x0 /tmp/ccok8UDE.o
 .bss           0x00000000200004bc        0x0 /tmp/ccEbu1za.o
 *fill*         0x00000000200004bc        0x4 
 .bss           0x00000000200004c0        0x8 /tmp/ccgHGxIG.o
                0x00000000200004c0                msTicks
 .bss           0x00000000200004c8        0x0 /tmp/ccP6kk3c.o
 .bss           0x00000000200004c8        0x0 /tmp/cc7i0lzJ.o
 .bss           0x00000000200004c8        0x0 /tmp/cceYM7fg.o
 .bss           0x00000000200004c8        0x0 /tmp/ccL1hLXM.o
 .bss           0x00000000200004c8        0x0 /tmp/cc53gwQj.o
 .bss           0x00000000200004c8        0x0 /tmp/cchSQZUQ.o
 .bss           0x00000000200004c8        0x0 /tmp/cciMG7ao.o
 .bss           0x00000000200004c8        0x0 /tmp/cc2xa1DV.o
 .bss           0x00000000200004c8        0x0 /tmp/ccMB6Qmt.o
 .bss           0x00000000200004c8        0x0 /tmp/ccx2ufi1.o
 .bss           0x00000000200004c8        0x0 /tmp/ccwKmPBz.o
 .bss           0x00000000200004c8        0x0 /tmp/cc6S6jc8.o
 .bss           0x00000000200004c8        0x0 /usr/bin/../lib/gcc/arm-none-eabi/6.3.1/../../../../arm-none-eabi/lib/thumb/v7e-m/fpv4-sp/hard/libg.a(lib_a-exit.o)
 .bss           0x00000000200004c8        0x0 /usr/bin/../lib/gcc/arm-none-eabi/6.3.1/../../../../arm-none-eabi/lib/thumb/v7e-m/fpv4-sp/hard/libg.a(lib_a-impure.o)
 .bss           0x00000000200004c8        0x0 /usr/bin/../lib/gcc/arm-none-eabi/6.3.1/../../../../arm-none-eabi/lib/thumb/v7e-m/fpv4-sp/hard/libg.a(lib_a-init.o)
 .bss           0x00000000200004c8        0x0 /usr/bin/../lib/gcc/arm-none-eabi/6.3.1/../../../../arm-none-eabi/lib/thumb/v7e-m/fpv4-sp/hard/libg.a(lib_a-memset.o)
 .bss           0x00000000200004c8        0x0 /usr/bin/../lib/gcc/arm-none-eabi/6.3.1/../../../../arm-none-eabi/lib/thumb/v7e-m/fpv4-sp/hard/libg.a(lib_a-__call_atexit.o)
 .bss           0x00000000200004c8        0x0 /usr/bin/../lib/gcc/arm-none-eabi/6.3.1/../../../../arm-none-eabi/lib/thumb/v7e-m/fpv4-sp/hard/libg.a(lib_a-atexit.o)
 .bss           0x00000000200004c8        0x0 /usr/bin/../lib/gcc/arm-none-eabi/6.3.1/../../../../arm-none-eabi/lib/thumb/v7e-m/fpv4-sp/hard/libg.a(lib_a-fini.o)
 .bss           0x00000000200004c8        0x0 /usr/bin/../lib/gcc/arm-none-eabi/6.3.1/../../../../arm-none-eabi/lib/thumb/v7e-m/fpv4-sp/hard/libg.a(lib_a-lock.o)
 .bss           0x00000000200004c8        0x0 /usr/bin/../lib/gcc/arm-none-eabi/6.3.1/../../../../arm-none-eabi/lib/thumb/v7e-m/fpv4-sp/hard/libg.a(lib_a-__atexit.o)
 .bss           0x00000000200004c8        0x0 /usr/bin/../lib/gcc/arm-none-eabi/6.3.1/../../../../arm-none-eabi/lib/thumb/v7e-m/fpv4-sp/hard/libnosys.a(_exit.o)
 .bss           0x00000000200004c8        0x0 /usr/bin/../lib/gcc/arm-none-eabi/6.3.1/thumb/v7e-m/fpv4-sp/hard/crtend.o
 .bss           0x00000000200004c8        0x0 /usr/bin/../lib/gcc/arm-none-eabi/6.3.1/thumb/v7e-m/fpv4-sp/hard/crtn.o
 *(COMMON)
 COMMON         0x00000000200004c8       0x21 /usr/bin/../lib/gcc/arm-none-eabi/6.3.1/../../../../arm-none-eabi/lib/thumb/v7e-m/fpv4-sp/hard/libg.a(lib_a-lock.o)
                0x00000000200004c8                __lock___atexit_recursive_mutex
                0x00000000200004cc                __lock___arc4random_mutex
                0x00000000200004d0                __lock___env_recursive_mutex
                0x00000000200004d4                __lock___sinit_recursive_mutex
                0x00000000200004d8                __lock___malloc_recursive_mutex
                0x00000000200004dc                __lock___at_quick_exit_mutex
                0x00000000200004e0                __lock___dd_hash_mutex
                0x00000000200004e4                __lock___tz_mutex
                0x00000000200004e8                __lock___sfp_recursive_mutex
                0x00000000200004ec                . = ALIGN (0x4)
 *fill*         0x00000000200004e9        0x3 
                0x00000000200004ec                _ebss = .
                0x00000000200004ec                __bss_end__ = .
                0x00000000200004ec                . = ALIGN (0x4)
                0x00000000200004ec                end = .
                0x0000000020020000                PROVIDE (_estack, (ORIGIN (ram) + LENGTH (ram)))
OUTPUT(build/sensored.elf elf32-littlearm)

.ARM.attributes
                0x0000000000000000       0x30
 .ARM.attributes
                0x0000000000000000       0x22 /usr/bin/../lib/gcc/arm-none-eabi/6.3.1/thumb/v7e-m/fpv4-sp/hard/crti.o
 .ARM.attributes
                0x0000000000000022       0x34 /usr/bin/../lib/gcc/arm-none-eabi/6.3.1/thumb/v7e-m/fpv4-sp/hard/crtbegin.o
 .ARM.attributes
                0x0000000000000056       0x20 /usr/bin/../lib/gcc/arm-none-eabi/6.3.1/../../../../arm-none-eabi/lib/thumb/v7e-m/fpv4-sp/hard/crt0.o
 .ARM.attributes
                0x0000000000000076       0x39 /tmp/cc0T58kD.o
 .ARM.attributes
                0x00000000000000af       0x39 /tmp/cc9mXTT8.o
 .ARM.attributes
                0x00000000000000e8       0x39 /tmp/ccok8UDE.o
 .ARM.attributes
                0x0000000000000121       0x39 /tmp/ccEbu1za.o
 .ARM.attributes
                0x000000000000015a       0x39 /tmp/ccgHGxIG.o
 .ARM.attributes
                0x0000000000000193       0x39 /tmp/ccP6kk3c.o
 .ARM.attributes
                0x00000000000001cc       0x39 /tmp/cc7i0lzJ.o
 .ARM.attributes
                0x0000000000000205       0x39 /tmp/cceYM7fg.o
 .ARM.attributes
                0x000000000000023e       0x21 /tmp/ccL1hLXM.o
 .ARM.attributes
                0x000000000000025f       0x39 /tmp/cc53gwQj.o
 .ARM.attributes
                0x0000000000000298       0x39 /tmp/cchSQZUQ.o
 .ARM.attributes
                0x00000000000002d1       0x39 /tmp/cciMG7ao.o
 .ARM.attributes
                0x000000000000030a       0x39 /tmp/cc2xa1DV.o
 .ARM.attributes
                0x0000000000000343       0x39 /tmp/ccMB6Qmt.o
 .ARM.attributes
                0x000000000000037c       0x39 /tmp/ccx2ufi1.o
 .ARM.attributes
                0x00000000000003b5       0x39 /tmp/ccwKmPBz.o
 .ARM.attributes
                0x00000000000003ee       0x39 /tmp/cc6S6jc8.o
 .ARM.attributes
                0x0000000000000427       0x34 /usr/bin/../lib/gcc/arm-none-eabi/6.3.1/../../../../arm-none-eabi/lib/thumb/v7e-m/fpv4-sp/hard/libg.a(lib_a-exit.o)
 .ARM.attributes
                0x000000000000045b       0x34 /usr/bin/../lib/gcc/arm-none-eabi/6.3.1/../../../../arm-none-eabi/lib/thumb/v7e-m/fpv4-sp/hard/libg.a(lib_a-impure.o)
 .ARM.attributes
                0x000000000000048f       0x34 /usr/bin/../lib/gcc/arm-none-eabi/6.3.1/../../../../arm-none-eabi/lib/thumb/v7e-m/fpv4-sp/hard/libg.a(lib_a-init.o)
 .ARM.attributes
                0x00000000000004c3       0x34 /usr/bin/../lib/gcc/arm-none-eabi/6.3.1/../../../../arm-none-eabi/lib/thumb/v7e-m/fpv4-sp/hard/libg.a(lib_a-memset.o)
 .ARM.attributes
                0x00000000000004f7       0x34 /usr/bin/../lib/gcc/arm-none-eabi/6.3.1/../../../../arm-none-eabi/lib/thumb/v7e-m/fpv4-sp/hard/libg.a(lib_a-__call_atexit.o)
 .ARM.attributes
                0x000000000000052b       0x34 /usr/bin/../lib/gcc/arm-none-eabi/6.3.1/../../../../arm-none-eabi/lib/thumb/v7e-m/fpv4-sp/hard/libg.a(lib_a-atexit.o)
 .ARM.attributes
                0x000000000000055f       0x34 /usr/bin/../lib/gcc/arm-none-eabi/6.3.1/../../../../arm-none-eabi/lib/thumb/v7e-m/fpv4-sp/hard/libg.a(lib_a-fini.o)
 .ARM.attributes
                0x0000000000000593       0x34 /usr/bin/../lib/gcc/arm-none-eabi/6.3.1/../../../../arm-none-eabi/lib/thumb/v7e-m/fpv4-sp/hard/libg.a(lib_a-lock.o)
 .ARM.attributes
                0x00000000000005c7       0x34 /usr/bin/../lib/gcc/arm-none-eabi/6.3.1/../../../../arm-none-eabi/lib/thumb/v7e-m/fpv4-sp/hard/libg.a(lib_a-__atexit.o)
 .ARM.attributes
                0x00000000000005fb       0x34 /usr/bin/../lib/gcc/arm-none-eabi/6.3.1/../../../../arm-none-eabi/lib/thumb/v7e-m/fpv4-sp/hard/libnosys.a(_exit.o)
 .ARM.attributes
                0x000000000000062f       0x34 /usr/bin/../lib/gcc/arm-none-eabi/6.3.1/thumb/v7e-m/fpv4-sp/hard/crtend.o
 .ARM.attributes
                0x0000000000000663       0x22 /usr/bin/../lib/gcc/arm-none-eabi/6.3.1/thumb/v7e-m/fpv4-sp/hard/crtn.o

.comment        0x0000000000000000       0x7f
 .comment       0x0000000000000000       0x7f /tmp/cc0T58kD.o
                                         0x80 (size before relaxing)
 .comment       0x000000000000007f       0x80 /tmp/cc9mXTT8.o
 .comment       0x000000000000007f       0x80 /tmp/ccok8UDE.o
 .comment       0x000000000000007f       0x80 /tmp/ccEbu1za.o
 .comment       0x000000000000007f       0x80 /tmp/ccgHGxIG.o
 .comment       0x000000000000007f       0x80 /tmp/ccP6kk3c.o
 .comment       0x000000000000007f       0x80 /tmp/cc7i0lzJ.o
 .comment       0x000000000000007f       0x80 /tmp/cceYM7fg.o
 .comment       0x000000000000007f       0x80 /tmp/cc53gwQj.o
 .comment       0x000000000000007f       0x80 /tmp/cchSQZUQ.o
 .comment       0x000000000000007f       0x80 /tmp/cciMG7ao.o
 .comment       0x000000000000007f       0x80 /tmp/cc2xa1DV.o
 .comment       0x000000000000007f       0x80 /tmp/ccMB6Qmt.o
 .comment       0x000000000000007f       0x80 /tmp/ccx2ufi1.o
 .comment       0x000000000000007f       0x80 /tmp/ccwKmPBz.o
 .comment       0x000000000000007f       0x80 /tmp/cc6S6jc8.o

.debug_info     0x0000000000000000     0x673b
 .debug_info    0x0000000000000000      0x5b0 /tmp/cc0T58kD.o
 .debug_info    0x00000000000005b0       0xcc /tmp/cc9mXTT8.o
 .debug_info    0x000000000000067c      0x690 /tmp/ccok8UDE.o
 .debug_info    0x0000000000000d0c       0xfe /tmp/ccEbu1za.o
 .debug_info    0x0000000000000e0a      0x190 /tmp/ccgHGxIG.o
 .debug_info    0x0000000000000f9a      0x63a /tmp/ccP6kk3c.o
 .debug_info    0x00000000000015d4      0x614 /tmp/cc7i0lzJ.o
 .debug_info    0x0000000000001be8      0x2be /tmp/cceYM7fg.o
 .debug_info    0x0000000000001ea6       0x83 /tmp/ccL1hLXM.o
 .debug_info    0x0000000000001f29      0x54d /tmp/cc53gwQj.o
 .debug_info    0x0000000000002476      0x1ef /tmp/cchSQZUQ.o
 .debug_info    0x0000000000002665      0x357 /tmp/cciMG7ao.o
 .debug_info    0x00000000000029bc      0x628 /tmp/cc2xa1DV.o
 .debug_info    0x0000000000002fe4      0xe67 /tmp/ccMB6Qmt.o
 .debug_info    0x0000000000003e4b      0x2a7 /tmp/ccx2ufi1.o
 .debug_info    0x00000000000040f2     0x1c74 /tmp/ccwKmPBz.o
 .debug_info    0x0000000000005d66      0x9d5 /tmp/cc6S6jc8.o

.debug_abbrev   0x0000000000000000     0x147c
 .debug_abbrev  0x0000000000000000      0x180 /tmp/cc0T58kD.o
 .debug_abbrev  0x0000000000000180       0x78 /tmp/cc9mXTT8.o
 .debug_abbrev  0x00000000000001f8      0x161 /tmp/ccok8UDE.o
 .debug_abbrev  0x0000000000000359       0x96 /tmp/ccEbu1za.o
 .debug_abbrev  0x00000000000003ef       0xa3 /tmp/ccgHGxIG.o
 .debug_abbrev  0x0000000000000492      0x162 /tmp/ccP6kk3c.o
 .debug_abbrev  0x00000000000005f4      0x158 /tmp/cc7i0lzJ.o
 .debug_abbrev  0x000000000000074c      0x114 /tmp/cceYM7fg.o
 .debug_abbrev  0x0000000000000860       0x12 /tmp/ccL1hLXM.o
 .debug_abbrev  0x0000000000000872      0x172 /tmp/cc53gwQj.o
 .debug_abbrev  0x00000000000009e4       0xf3 /tmp/cchSQZUQ.o
 .debug_abbrev  0x0000000000000ad7      0x1bc /tmp/cciMG7ao.o
 .debug_abbrev  0x0000000000000c93      0x1b8 /tmp/cc2xa1DV.o
 .debug_abbrev  0x0000000000000e4b      0x1cf /tmp/ccMB6Qmt.o
 .debug_abbrev  0x000000000000101a      0x146 /tmp/ccx2ufi1.o
 .debug_abbrev  0x0000000000001160      0x19a /tmp/ccwKmPBz.o
 .debug_abbrev  0x00000000000012fa      0x182 /tmp/cc6S6jc8.o

.debug_aranges  0x0000000000000000      0x228
 .debug_aranges
                0x0000000000000000       0x20 /tmp/cc0T58kD.o
 .debug_aranges
                0x0000000000000020       0x20 /tmp/cc9mXTT8.o
 .debug_aranges
                0x0000000000000040       0x20 /tmp/ccok8UDE.o
 .debug_aranges
                0x0000000000000060       0x20 /tmp/ccEbu1za.o
 .debug_aranges
                0x0000000000000080       0x20 /tmp/ccgHGxIG.o
 .debug_aranges
                0x00000000000000a0       0x20 /tmp/ccP6kk3c.o
 .debug_aranges
                0x00000000000000c0       0x20 /tmp/cc7i0lzJ.o
 .debug_aranges
                0x00000000000000e0       0x20 /tmp/cceYM7fg.o
 .debug_aranges
                0x0000000000000100       0x28 /tmp/ccL1hLXM.o
 .debug_aranges
                0x0000000000000128       0x20 /tmp/cc53gwQj.o
 .debug_aranges
                0x0000000000000148       0x20 /tmp/cchSQZUQ.o
 .debug_aranges
                0x0000000000000168       0x20 /tmp/cciMG7ao.o
 .debug_aranges
                0x0000000000000188       0x20 /tmp/cc2xa1DV.o
 .debug_aranges
                0x00000000000001a8       0x20 /tmp/ccMB6Qmt.o
 .debug_aranges
                0x00000000000001c8       0x20 /tmp/ccx2ufi1.o
 .debug_aranges
                0x00000000000001e8       0x20 /tmp/ccwKmPBz.o
 .debug_aranges
                0x0000000000000208       0x20 /tmp/cc6S6jc8.o

.debug_line     0x0000000000000000     0x1af8
 .debug_line    0x0000000000000000      0x150 /tmp/cc0T58kD.o
 .debug_line    0x0000000000000150       0xce /tmp/cc9mXTT8.o
 .debug_line    0x000000000000021e      0x108 /tmp/ccok8UDE.o
 .debug_line    0x0000000000000326       0xd7 /tmp/ccEbu1za.o
 .debug_line    0x00000000000003fd      0x104 /tmp/ccgHGxIG.o
 .debug_line    0x0000000000000501      0x14b /tmp/ccP6kk3c.o
 .debug_line    0x000000000000064c      0x14d /tmp/cc7i0lzJ.o
 .debug_line    0x0000000000000799      0x110 /tmp/cceYM7fg.o
 .debug_line    0x00000000000008a9       0x75 /tmp/ccL1hLXM.o
 .debug_line    0x000000000000091e      0x140 /tmp/cc53gwQj.o
 .debug_line    0x0000000000000a5e      0x11c /tmp/cchSQZUQ.o
 .debug_line    0x0000000000000b7a      0x173 /tmp/cciMG7ao.o
 .debug_line    0x0000000000000ced      0x1fd /tmp/cc2xa1DV.o
 .debug_line    0x0000000000000eea      0x2fd /tmp/ccMB6Qmt.o
 .debug_line    0x00000000000011e7      0x128 /tmp/ccx2ufi1.o
 .debug_line    0x000000000000130f      0x552 /tmp/ccwKmPBz.o
 .debug_line    0x0000000000001861      0x297 /tmp/cc6S6jc8.o

.debug_str      0x0000000000000000     0x2960
 .debug_str     0x0000000000000000      0x4f0 /tmp/cc0T58kD.o
                                        0x54c (size before relaxing)
 .debug_str     0x00000000000004f0       0x11 /tmp/cc9mXTT8.o
                                        0x1db (size before relaxing)
 .debug_str     0x0000000000000501      0x5db /tmp/ccok8UDE.o
                                        0x7f7 (size before relaxing)
 .debug_str     0x0000000000000adc       0x23 /tmp/ccEbu1za.o
                                        0x1f6 (size before relaxing)
 .debug_str     0x0000000000000aff       0xb0 /tmp/ccgHGxIG.o
                                        0x28e (size before relaxing)
 .debug_str     0x0000000000000baf      0x1a9 /tmp/ccP6kk3c.o
                                        0xa4b (size before relaxing)
 .debug_str     0x0000000000000d58      0x179 /tmp/cc7i0lzJ.o
                                        0x421 (size before relaxing)
 .debug_str     0x0000000000000ed1       0x19 /tmp/cceYM7fg.o
                                        0x388 (size before relaxing)
 .debug_str     0x0000000000000eea       0xf8 /tmp/cc53gwQj.o
                                        0x438 (size before relaxing)
 .debug_str     0x0000000000000fe2       0xb8 /tmp/cchSQZUQ.o
                                        0x2aa (size before relaxing)
 .debug_str     0x000000000000109a       0xe6 /tmp/cciMG7ao.o
                                        0x3b6 (size before relaxing)
 .debug_str     0x0000000000001180      0x179 /tmp/cc2xa1DV.o
                                        0x50a (size before relaxing)
 .debug_str     0x00000000000012f9      0x699 /tmp/ccMB6Qmt.o
                                        0xa2c (size before relaxing)
 .debug_str     0x0000000000001992      0x159 /tmp/ccx2ufi1.o
                                        0x378 (size before relaxing)
 .debug_str     0x0000000000001aeb      0xa62 /tmp/ccwKmPBz.o
                                        0xe3a (size before relaxing)
 .debug_str     0x000000000000254d      0x413 /tmp/cc6S6jc8.o
                                        0x6f9 (size before relaxing)

.debug_frame    0x0000000000000000     0x275c
 .debug_frame   0x0000000000000000       0x80 /tmp/cc0T58kD.o
 .debug_frame   0x0000000000000080       0x30 /tmp/cc9mXTT8.o
 .debug_frame   0x00000000000000b0       0x78 /tmp/ccok8UDE.o
 .debug_frame   0x0000000000000128       0x38 /tmp/ccEbu1za.o
 .debug_frame   0x0000000000000160      0x138 /tmp/ccgHGxIG.o
 .debug_frame   0x0000000000000298       0x78 /tmp/ccP6kk3c.o
 .debug_frame   0x0000000000000310       0x7c /tmp/cc7i0lzJ.o
 .debug_frame   0x000000000000038c       0x34 /tmp/cceYM7fg.o
 .debug_frame   0x00000000000003c0       0xd8 /tmp/cc53gwQj.o
 .debug_frame   0x0000000000000498       0xc8 /tmp/cchSQZUQ.o
 .debug_frame   0x0000000000000560      0x148 /tmp/cciMG7ao.o
 .debug_frame   0x00000000000006a8      0x23c /tmp/cc2xa1DV.o
 .debug_frame   0x00000000000008e4      0x83c /tmp/ccMB6Qmt.o
 .debug_frame   0x0000000000001120      0x11c /tmp/ccx2ufi1.o
 .debug_frame   0x000000000000123c      0xe54 /tmp/ccwKmPBz.o
 .debug_frame   0x0000000000002090      0x490 /tmp/cc6S6jc8.o
 .debug_frame   0x0000000000002520       0x28 /usr/bin/../lib/gcc/arm-none-eabi/6.3.1/../../../../arm-none-eabi/lib/thumb/v7e-m/fpv4-sp/hard/libg.a(lib_a-exit.o)
 .debug_frame   0x0000000000002548       0x2c /usr/bin/../lib/gcc/arm-none-eabi/6.3.1/../../../../arm-none-eabi/lib/thumb/v7e-m/fpv4-sp/hard/libg.a(lib_a-init.o)
 .debug_frame   0x0000000000002574       0x34 /usr/bin/../lib/gcc/arm-none-eabi/6.3.1/../../../../arm-none-eabi/lib/thumb/v7e-m/fpv4-sp/hard/libg.a(lib_a-memset.o)
 .debug_frame   0x00000000000025a8       0x5c /usr/bin/../lib/gcc/arm-none-eabi/6.3.1/../../../../arm-none-eabi/lib/thumb/v7e-m/fpv4-sp/hard/libg.a(lib_a-__call_atexit.o)
 .debug_frame   0x0000000000002604       0x20 /usr/bin/../lib/gcc/arm-none-eabi/6.3.1/../../../../arm-none-eabi/lib/thumb/v7e-m/fpv4-sp/hard/libg.a(lib_a-atexit.o)
 .debug_frame   0x0000000000002624       0x34 /usr/bin/../lib/gcc/arm-none-eabi/6.3.1/../../../../arm-none-eabi/lib/thumb/v7e-m/fpv4-sp/hard/libg.a(lib_a-fini.o)
 .debug_frame   0x0000000000002658       0xb0 /usr/bin/../lib/gcc/arm-none-eabi/6.3.1/../../../../arm-none-eabi/lib/thumb/v7e-m/fpv4-sp/hard/libg.a(lib_a-lock.o)
 .debug_frame   0x0000000000002708       0x34 /usr/bin/../lib/gcc/arm-none-eabi/6.3.1/../../../../arm-none-eabi/lib/thumb/v7e-m/fpv4-sp/hard/libg.a(lib_a-__atexit.o)
 .debug_frame   0x000000000000273c       0x20 /usr/bin/../lib/gcc/arm-none-eabi/6.3.1/../../../../arm-none-eabi/lib/thumb/v7e-m/fpv4-sp/hard/libnosys.a(_exit.o)

.debug_ranges   0x0000000000000000       0x20
 .debug_ranges  0x0000000000000000       0x20 /tmp/ccL1hLXM.o
